
Audio_Spectrometer.elf:     file format elf32-avr

Sections:
Idx Name          Size      VMA       LMA       File off  Algn
  0 .data         00000002  00800100  00006b30  00006bc4  2**0
                  CONTENTS, ALLOC, LOAD, DATA
  1 .text         00006b30  00000000  00000000  00000094  2**1
                  CONTENTS, ALLOC, LOAD, READONLY, CODE
  2 .bss          00000015  00800102  00800102  00006bc6  2**0
                  ALLOC
  3 .comment      00000030  00000000  00000000  00006bc6  2**0
                  CONTENTS, READONLY
  4 .note.gnu.avr.deviceinfo 00000040  00000000  00000000  00006bf8  2**2
                  CONTENTS, READONLY
  5 .debug_aranges 00000090  00000000  00000000  00006c38  2**0
                  CONTENTS, READONLY, DEBUGGING
  6 .debug_info   0000482d  00000000  00000000  00006cc8  2**0
                  CONTENTS, READONLY, DEBUGGING
  7 .debug_abbrev 000007bd  00000000  00000000  0000b4f5  2**0
                  CONTENTS, READONLY, DEBUGGING
  8 .debug_line   00001934  00000000  00000000  0000bcb2  2**0
                  CONTENTS, READONLY, DEBUGGING
  9 .debug_frame  0000018c  00000000  00000000  0000d5e8  2**2
                  CONTENTS, READONLY, DEBUGGING
 10 .debug_str    0000059a  00000000  00000000  0000d774  2**0
                  CONTENTS, READONLY, DEBUGGING
 11 .debug_loc    000018f8  00000000  00000000  0000dd0e  2**0
                  CONTENTS, READONLY, DEBUGGING
 12 .debug_ranges 00000080  00000000  00000000  0000f606  2**0
                  CONTENTS, READONLY, DEBUGGING

Disassembly of section .text:

00000000 <__vectors>:
       0:	0c 94 74 29 	jmp	0x52e8	; 0x52e8 <__ctors_end>
       4:	0c 94 91 29 	jmp	0x5322	; 0x5322 <__bad_interrupt>
       8:	0c 94 91 29 	jmp	0x5322	; 0x5322 <__bad_interrupt>
       c:	0c 94 91 29 	jmp	0x5322	; 0x5322 <__bad_interrupt>
      10:	0c 94 3a 35 	jmp	0x6a74	; 0x6a74 <__vector_4>
      14:	0c 94 91 29 	jmp	0x5322	; 0x5322 <__bad_interrupt>
      18:	0c 94 91 29 	jmp	0x5322	; 0x5322 <__bad_interrupt>
      1c:	0c 94 91 29 	jmp	0x5322	; 0x5322 <__bad_interrupt>
      20:	0c 94 91 29 	jmp	0x5322	; 0x5322 <__bad_interrupt>
      24:	0c 94 91 29 	jmp	0x5322	; 0x5322 <__bad_interrupt>
      28:	0c 94 91 29 	jmp	0x5322	; 0x5322 <__bad_interrupt>
      2c:	0c 94 91 29 	jmp	0x5322	; 0x5322 <__bad_interrupt>
      30:	0c 94 91 29 	jmp	0x5322	; 0x5322 <__bad_interrupt>
      34:	0c 94 91 29 	jmp	0x5322	; 0x5322 <__bad_interrupt>
      38:	0c 94 91 29 	jmp	0x5322	; 0x5322 <__bad_interrupt>
      3c:	0c 94 91 29 	jmp	0x5322	; 0x5322 <__bad_interrupt>
      40:	0c 94 91 29 	jmp	0x5322	; 0x5322 <__bad_interrupt>
      44:	0c 94 91 29 	jmp	0x5322	; 0x5322 <__bad_interrupt>
      48:	0c 94 91 29 	jmp	0x5322	; 0x5322 <__bad_interrupt>
      4c:	0c 94 91 29 	jmp	0x5322	; 0x5322 <__bad_interrupt>
      50:	0c 94 91 29 	jmp	0x5322	; 0x5322 <__bad_interrupt>
      54:	0c 94 91 29 	jmp	0x5322	; 0x5322 <__bad_interrupt>
      58:	0c 94 91 29 	jmp	0x5322	; 0x5322 <__bad_interrupt>
      5c:	0c 94 91 29 	jmp	0x5322	; 0x5322 <__bad_interrupt>
      60:	0c 94 91 29 	jmp	0x5322	; 0x5322 <__bad_interrupt>
      64:	0c 94 91 29 	jmp	0x5322	; 0x5322 <__bad_interrupt>

00000068 <__trampolines_end>:
	...
     2e8:	00 00       	nop
     2ea:	ff ff       	.word	0xffff	; ????
     2ec:	ff ff       	.word	0xffff	; ????
     2ee:	ff ff       	.word	0xffff	; ????
	...
     30c:	00 00       	nop
     30e:	ff ff       	.word	0xffff	; ????
     310:	ff ff       	.word	0xffff	; ????
     312:	00 21       	and	r16, r0
     314:	00 00       	nop
     316:	ff ff       	.word	0xffff	; ????
     318:	ff ff       	.word	0xffff	; ????
	...
     3aa:	ff ff       	.word	0xffff	; ????
     3ac:	ff ff       	.word	0xffff	; ????
     3ae:	ff ff       	.word	0xffff	; ????
     3b0:	52 aa       	std	Z+50, r5	; 0x32
	...
     3ce:	ff ff       	.word	0xffff	; ????
     3d0:	ff ff       	.word	0xffff	; ????
     3d2:	00 21       	and	r16, r0
     3d4:	00 00       	nop
     3d6:	ef 7e       	andi	r30, 0xEF	; 239
     3d8:	ef 7e       	andi	r30, 0xEF	; 239
	...
     466:	00 00       	nop
     468:	ff ff       	.word	0xffff	; ????
     46a:	ff ff       	.word	0xffff	; ????
     46c:	00 00       	nop
     46e:	ff ff       	.word	0xffff	; ????
     470:	ff ff       	.word	0xffff	; ????
     472:	00 00       	nop
     474:	00 00       	nop
     476:	10 82       	st	Z, r1
     478:	ff ff       	.word	0xffff	; ????
     47a:	ff ff       	.word	0xffff	; ????
     47c:	00 00       	nop
     47e:	00 00       	nop
     480:	ff ff       	.word	0xffff	; ????
     482:	ff ff       	.word	0xffff	; ????
     484:	00 00       	nop
     486:	00 00       	nop
     488:	ff ff       	.word	0xffff	; ????
     48a:	ff ff       	.word	0xffff	; ????
     48c:	ff ff       	.word	0xffff	; ????
     48e:	ff ff       	.word	0xffff	; ????
     490:	ff ff       	.word	0xffff	; ????
     492:	00 21       	and	r16, r0
     494:	00 00       	nop
     496:	ff ff       	.word	0xffff	; ????
     498:	ff ff       	.word	0xffff	; ????
     49a:	00 00       	nop
     49c:	00 00       	nop
     49e:	00 00       	nop
     4a0:	ff ff       	.word	0xffff	; ????
     4a2:	ff ff       	.word	0xffff	; ????
     4a4:	ff ff       	.word	0xffff	; ????
     4a6:	ff ff       	.word	0xffff	; ????
	...
     528:	ff ff       	.word	0xffff	; ????
     52a:	ff ff       	.word	0xffff	; ????
     52c:	00 00       	nop
     52e:	ff ff       	.word	0xffff	; ????
     530:	ff ff       	.word	0xffff	; ????
     532:	00 00       	nop
     534:	00 00       	nop
     536:	10 82       	st	Z, r1
     538:	ff ff       	.word	0xffff	; ????
     53a:	ff ff       	.word	0xffff	; ????
     53c:	00 00       	nop
     53e:	00 00       	nop
     540:	ff ff       	.word	0xffff	; ????
     542:	ff ff       	.word	0xffff	; ????
     544:	00 00       	nop
     546:	ff ff       	.word	0xffff	; ????
     548:	ff ff       	.word	0xffff	; ????
     54a:	ff ff       	.word	0xffff	; ????
     54c:	ff ff       	.word	0xffff	; ????
     54e:	ff ff       	.word	0xffff	; ????
     550:	ff ff       	.word	0xffff	; ????
     552:	00 21       	and	r16, r0
     554:	00 00       	nop
     556:	ff ff       	.word	0xffff	; ????
     558:	ff ff       	.word	0xffff	; ????
     55a:	00 00       	nop
     55c:	00 00       	nop
     55e:	ff ff       	.word	0xffff	; ????
     560:	ff ff       	.word	0xffff	; ????
     562:	ff ff       	.word	0xffff	; ????
     564:	ff ff       	.word	0xffff	; ????
     566:	ff ff       	.word	0xffff	; ????
     568:	ff ff       	.word	0xffff	; ????
	...
     5e6:	ff ff       	.word	0xffff	; ????
     5e8:	ff ff       	.word	0xffff	; ????
     5ea:	ff ff       	.word	0xffff	; ????
     5ec:	00 00       	nop
     5ee:	ff ff       	.word	0xffff	; ????
     5f0:	ff ff       	.word	0xffff	; ????
     5f2:	ff ff       	.word	0xffff	; ????
     5f4:	00 00       	nop
     5f6:	10 82       	st	Z, r1
     5f8:	ff ff       	.word	0xffff	; ????
     5fa:	ff ff       	.word	0xffff	; ????
     5fc:	00 00       	nop
     5fe:	00 00       	nop
     600:	ff ff       	.word	0xffff	; ????
     602:	ff ff       	.word	0xffff	; ????
     604:	00 00       	nop
     606:	ff ff       	.word	0xffff	; ????
     608:	ff ff       	.word	0xffff	; ????
     60a:	00 00       	nop
     60c:	00 00       	nop
     60e:	ff ff       	.word	0xffff	; ????
     610:	ff ff       	.word	0xffff	; ????
     612:	00 21       	and	r16, r0
     614:	00 00       	nop
     616:	ff ff       	.word	0xffff	; ????
     618:	ff ff       	.word	0xffff	; ????
     61a:	00 00       	nop
     61c:	ef 7e       	andi	r30, 0xEF	; 239
     61e:	ff ff       	.word	0xffff	; ????
     620:	ff ff       	.word	0xffff	; ????
     622:	00 00       	nop
     624:	00 00       	nop
     626:	ff ff       	.word	0xffff	; ????
     628:	ff ff       	.word	0xffff	; ????
	...
     6a6:	ff ff       	.word	0xffff	; ????
     6a8:	ff ff       	.word	0xffff	; ????
     6aa:	ff ff       	.word	0xffff	; ????
     6ac:	ff ff       	.word	0xffff	; ????
     6ae:	ff ff       	.word	0xffff	; ????
     6b0:	ff ff       	.word	0xffff	; ????
     6b2:	ff ff       	.word	0xffff	; ????
     6b4:	00 00       	nop
     6b6:	10 82       	st	Z, r1
     6b8:	ff ff       	.word	0xffff	; ????
     6ba:	ff ff       	.word	0xffff	; ????
     6bc:	00 00       	nop
     6be:	7b f0       	brvs	.+30     	; 0x6de <__LOCK_REGION_LENGTH__+0x2de>
     6c0:	ff ff       	.word	0xffff	; ????
     6c2:	ff ff       	.word	0xffff	; ????
     6c4:	00 00       	nop
     6c6:	ff ff       	.word	0xffff	; ????
     6c8:	ff ff       	.word	0xffff	; ????
     6ca:	00 00       	nop
     6cc:	00 00       	nop
     6ce:	ff ff       	.word	0xffff	; ????
     6d0:	ff ff       	.word	0xffff	; ????
     6d2:	00 21       	and	r16, r0
     6d4:	00 00       	nop
     6d6:	ff ff       	.word	0xffff	; ????
     6d8:	ff ff       	.word	0xffff	; ????
     6da:	00 00       	nop
     6dc:	ff ff       	.word	0xffff	; ????
     6de:	ff ff       	.word	0xffff	; ????
     6e0:	ff ff       	.word	0xffff	; ????
     6e2:	00 00       	nop
     6e4:	00 00       	nop
     6e6:	ff ff       	.word	0xffff	; ????
     6e8:	ff ff       	.word	0xffff	; ????
	...
     766:	ff ff       	.word	0xffff	; ????
     768:	ff ff       	.word	0xffff	; ????
     76a:	ff ff       	.word	0xffff	; ????
     76c:	ff ff       	.word	0xffff	; ????
     76e:	ff ff       	.word	0xffff	; ????
     770:	ff ff       	.word	0xffff	; ????
     772:	ff ff       	.word	0xffff	; ????
     774:	00 00       	nop
     776:	00 00       	nop
     778:	ff ff       	.word	0xffff	; ????
     77a:	ff ff       	.word	0xffff	; ????
     77c:	ff ff       	.word	0xffff	; ????
     77e:	ff ff       	.word	0xffff	; ????
     780:	ff ff       	.word	0xffff	; ????
     782:	ff ff       	.word	0xffff	; ????
     784:	00 00       	nop
     786:	ff ff       	.word	0xffff	; ????
     788:	ff ff       	.word	0xffff	; ????
     78a:	ff ff       	.word	0xffff	; ????
     78c:	8c 51       	subi	r24, 0x1C	; 28
     78e:	ff ff       	.word	0xffff	; ????
     790:	ff ff       	.word	0xffff	; ????
     792:	00 21       	and	r16, r0
     794:	00 00       	nop
     796:	ff ff       	.word	0xffff	; ????
     798:	ff ff       	.word	0xffff	; ????
     79a:	00 00       	nop
     79c:	00 00       	nop
     79e:	ff ff       	.word	0xffff	; ????
     7a0:	ff ff       	.word	0xffff	; ????
     7a2:	00 00       	nop
     7a4:	ff ff       	.word	0xffff	; ????
     7a6:	ff ff       	.word	0xffff	; ????
     7a8:	ff ff       	.word	0xffff	; ????
	...
     822:	00 00       	nop
     824:	ff ff       	.word	0xffff	; ????
     826:	ff ff       	.word	0xffff	; ????
     828:	ff ff       	.word	0xffff	; ????
     82a:	00 00       	nop
     82c:	00 00       	nop
     82e:	00 00       	nop
     830:	ff ff       	.word	0xffff	; ????
     832:	ff ff       	.word	0xffff	; ????
     834:	ff ff       	.word	0xffff	; ????
     836:	00 00       	nop
     838:	ff ff       	.word	0xffff	; ????
     83a:	ff ff       	.word	0xffff	; ????
     83c:	ff ff       	.word	0xffff	; ????
     83e:	00 00       	nop
     840:	ff ff       	.word	0xffff	; ????
     842:	ff ff       	.word	0xffff	; ????
     844:	00 00       	nop
     846:	00 00       	nop
     848:	ff ff       	.word	0xffff	; ????
     84a:	ff ff       	.word	0xffff	; ????
     84c:	ff ff       	.word	0xffff	; ????
     84e:	ff ff       	.word	0xffff	; ????
     850:	ff ff       	.word	0xffff	; ????
     852:	00 21       	and	r16, r0
     854:	00 00       	nop
     856:	ff ff       	.word	0xffff	; ????
     858:	ff ff       	.word	0xffff	; ????
     85a:	00 00       	nop
     85c:	00 00       	nop
     85e:	6b 4d       	sbci	r22, 0xDB	; 219
     860:	ff ff       	.word	0xffff	; ????
     862:	ff ff       	.word	0xffff	; ????
     864:	ff ff       	.word	0xffff	; ????
     866:	ff ff       	.word	0xffff	; ????
	...
     eb4:	ff ff       	.word	0xffff	; ????
     eb6:	ff ff       	.word	0xffff	; ????
     eb8:	ff ff       	.word	0xffff	; ????
     eba:	ff ff       	.word	0xffff	; ????
     ebc:	ff ff       	.word	0xffff	; ????
     ebe:	7c 10       	cpse	r7, r12
	...
     ef4:	ff ff       	.word	0xffff	; ????
	...
     f3e:	ff ff       	.word	0xffff	; ????
     f40:	ff ff       	.word	0xffff	; ????
	...
     f72:	ff ff       	.word	0xffff	; ????
     f74:	ff ff       	.word	0xffff	; ????
     f76:	ff ff       	.word	0xffff	; ????
     f78:	00 00       	nop
     f7a:	ff ff       	.word	0xffff	; ????
     f7c:	ff ff       	.word	0xffff	; ????
     f7e:	ff ff       	.word	0xffff	; ????
	...
     fb0:	00 00       	nop
     fb2:	ff ff       	.word	0xffff	; ????
     fb4:	ff ff       	.word	0xffff	; ????
	...
     ffa:	00 00       	nop
     ffc:	ff ff       	.word	0xffff	; ????
     ffe:	ff ff       	.word	0xffff	; ????
    1000:	ff ff       	.word	0xffff	; ????
	...
    1032:	ff ff       	.word	0xffff	; ????
    1034:	ff ff       	.word	0xffff	; ????
    1036:	ff ff       	.word	0xffff	; ????
    1038:	ff ff       	.word	0xffff	; ????
	...
    1042:	00 00       	nop
    1044:	ff ff       	.word	0xffff	; ????
    1046:	ff ff       	.word	0xffff	; ????
    1048:	ff ff       	.word	0xffff	; ????
    104a:	ff ff       	.word	0xffff	; ????
    104c:	ff ff       	.word	0xffff	; ????
    104e:	00 00       	nop
    1050:	00 00       	nop
    1052:	00 00       	nop
    1054:	ff ff       	.word	0xffff	; ????
    1056:	ff ff       	.word	0xffff	; ????
    1058:	ff ff       	.word	0xffff	; ????
    105a:	ff ff       	.word	0xffff	; ????
    105c:	ff ff       	.word	0xffff	; ????
    105e:	00 00       	nop
    1060:	00 00       	nop
    1062:	00 00       	nop
    1064:	ff ff       	.word	0xffff	; ????
    1066:	ff ff       	.word	0xffff	; ????
    1068:	ff ff       	.word	0xffff	; ????
    106a:	ff ff       	.word	0xffff	; ????
    106c:	00 00       	nop
    106e:	00 00       	nop
    1070:	ff ff       	.word	0xffff	; ????
    1072:	ff ff       	.word	0xffff	; ????
    1074:	ff ff       	.word	0xffff	; ????
    1076:	ff ff       	.word	0xffff	; ????
    1078:	ff ff       	.word	0xffff	; ????
    107a:	00 00       	nop
    107c:	ff ff       	.word	0xffff	; ????
    107e:	ff ff       	.word	0xffff	; ????
    1080:	ff ff       	.word	0xffff	; ????
    1082:	ff ff       	.word	0xffff	; ????
    1084:	00 00       	nop
    1086:	00 00       	nop
    1088:	ff ff       	.word	0xffff	; ????
    108a:	ff ff       	.word	0xffff	; ????
    108c:	ff ff       	.word	0xffff	; ????
    108e:	ff ff       	.word	0xffff	; ????
    1090:	00 00       	nop
    1092:	00 00       	nop
    1094:	00 00       	nop
    1096:	ff ff       	.word	0xffff	; ????
    1098:	ff ff       	.word	0xffff	; ????
    109a:	ff ff       	.word	0xffff	; ????
    109c:	ff ff       	.word	0xffff	; ????
    109e:	ff ff       	.word	0xffff	; ????
    10a0:	00 00       	nop
    10a2:	ff ff       	.word	0xffff	; ????
    10a4:	ff ff       	.word	0xffff	; ????
    10a6:	ff ff       	.word	0xffff	; ????
    10a8:	00 00       	nop
    10aa:	00 00       	nop
    10ac:	00 00       	nop
    10ae:	ff ff       	.word	0xffff	; ????
    10b0:	ff ff       	.word	0xffff	; ????
    10b2:	ff ff       	.word	0xffff	; ????
    10b4:	ff ff       	.word	0xffff	; ????
    10b6:	ce 59       	subi	r28, 0x9E	; 158
    10b8:	00 00       	nop
    10ba:	e7 1c       	adc	r14, r7
    10bc:	ff ff       	.word	0xffff	; ????
    10be:	ff ff       	.word	0xffff	; ????
    10c0:	ff ff       	.word	0xffff	; ????
    10c2:	ff ff       	.word	0xffff	; ????
    10c4:	00 00       	nop
    10c6:	00 00       	nop
    10c8:	ff ff       	.word	0xffff	; ????
    10ca:	ff ff       	.word	0xffff	; ????
    10cc:	ff ff       	.word	0xffff	; ????
    10ce:	ff ff       	.word	0xffff	; ????
    10d0:	00 00       	nop
    10d2:	00 00       	nop
    10d4:	00 00       	nop
    10d6:	ff ff       	.word	0xffff	; ????
    10d8:	ff ff       	.word	0xffff	; ????
    10da:	ff ff       	.word	0xffff	; ????
    10dc:	ff ff       	.word	0xffff	; ????
	...
    10f2:	00 00       	nop
    10f4:	ff ff       	.word	0xffff	; ????
    10f6:	ff ff       	.word	0xffff	; ????
    10f8:	ff ff       	.word	0xffff	; ????
    10fa:	ff ff       	.word	0xffff	; ????
    10fc:	ff ff       	.word	0xffff	; ????
    10fe:	ff ff       	.word	0xffff	; ????
    1100:	00 00       	nop
    1102:	00 00       	nop
    1104:	ff ff       	.word	0xffff	; ????
    1106:	ff ff       	.word	0xffff	; ????
    1108:	ff ff       	.word	0xffff	; ????
    110a:	ff ff       	.word	0xffff	; ????
    110c:	ff ff       	.word	0xffff	; ????
    110e:	ff ff       	.word	0xffff	; ????
    1110:	00 00       	nop
    1112:	ff ff       	.word	0xffff	; ????
    1114:	ff ff       	.word	0xffff	; ????
    1116:	ff ff       	.word	0xffff	; ????
    1118:	00 00       	nop
    111a:	ff ff       	.word	0xffff	; ????
    111c:	ff ff       	.word	0xffff	; ????
    111e:	ff ff       	.word	0xffff	; ????
    1120:	00 00       	nop
    1122:	ff ff       	.word	0xffff	; ????
    1124:	ff ff       	.word	0xffff	; ????
    1126:	ff ff       	.word	0xffff	; ????
    1128:	ff ff       	.word	0xffff	; ????
    112a:	ff ff       	.word	0xffff	; ????
    112c:	ff ff       	.word	0xffff	; ????
    112e:	00 00       	nop
    1130:	ff ff       	.word	0xffff	; ????
    1132:	ff ff       	.word	0xffff	; ????
    1134:	ff ff       	.word	0xffff	; ????
    1136:	ff ff       	.word	0xffff	; ????
    1138:	ff ff       	.word	0xffff	; ????
    113a:	00 00       	nop
    113c:	ff ff       	.word	0xffff	; ????
    113e:	ff ff       	.word	0xffff	; ????
    1140:	ff ff       	.word	0xffff	; ????
    1142:	ff ff       	.word	0xffff	; ????
    1144:	00 00       	nop
    1146:	ff ff       	.word	0xffff	; ????
    1148:	ff ff       	.word	0xffff	; ????
    114a:	ff ff       	.word	0xffff	; ????
    114c:	ff ff       	.word	0xffff	; ????
    114e:	ff ff       	.word	0xffff	; ????
    1150:	ff ff       	.word	0xffff	; ????
    1152:	00 00       	nop
    1154:	00 00       	nop
    1156:	ff ff       	.word	0xffff	; ????
    1158:	ff ff       	.word	0xffff	; ????
    115a:	ff ff       	.word	0xffff	; ????
    115c:	ff ff       	.word	0xffff	; ????
    115e:	ff ff       	.word	0xffff	; ????
    1160:	ff ff       	.word	0xffff	; ????
    1162:	ff ff       	.word	0xffff	; ????
    1164:	ff ff       	.word	0xffff	; ????
    1166:	ff ff       	.word	0xffff	; ????
    1168:	ff ff       	.word	0xffff	; ????
    116a:	00 00       	nop
    116c:	ff ff       	.word	0xffff	; ????
    116e:	ff ff       	.word	0xffff	; ????
    1170:	ff ff       	.word	0xffff	; ????
    1172:	00 00       	nop
    1174:	ff ff       	.word	0xffff	; ????
    1176:	ff ff       	.word	0xffff	; ????
    1178:	00 00       	nop
    117a:	e7 1c       	adc	r14, r7
    117c:	ff ff       	.word	0xffff	; ????
    117e:	ff ff       	.word	0xffff	; ????
    1180:	ff ff       	.word	0xffff	; ????
    1182:	ff ff       	.word	0xffff	; ????
    1184:	00 00       	nop
    1186:	ff ff       	.word	0xffff	; ????
    1188:	ff ff       	.word	0xffff	; ????
    118a:	d6 9a       	sbi	0x1a, 6	; 26
    118c:	00 00       	nop
    118e:	ff ff       	.word	0xffff	; ????
    1190:	ff ff       	.word	0xffff	; ????
    1192:	00 00       	nop
    1194:	00 00       	nop
    1196:	ff ff       	.word	0xffff	; ????
    1198:	ff ff       	.word	0xffff	; ????
    119a:	ff ff       	.word	0xffff	; ????
    119c:	ff ff       	.word	0xffff	; ????
	...
    11b6:	00 00       	nop
    11b8:	ff ff       	.word	0xffff	; ????
    11ba:	ff ff       	.word	0xffff	; ????
    11bc:	ff ff       	.word	0xffff	; ????
    11be:	ff ff       	.word	0xffff	; ????
    11c0:	00 00       	nop
    11c2:	00 00       	nop
    11c4:	ff ff       	.word	0xffff	; ????
    11c6:	ff ff       	.word	0xffff	; ????
    11c8:	00 00       	nop
    11ca:	00 00       	nop
    11cc:	ff ff       	.word	0xffff	; ????
    11ce:	ff ff       	.word	0xffff	; ????
    11d0:	00 00       	nop
    11d2:	ff ff       	.word	0xffff	; ????
    11d4:	ff ff       	.word	0xffff	; ????
    11d6:	18 c3       	rjmp	.+1584   	; 0x1808 <__stack+0xf09>
    11d8:	18 c3       	rjmp	.+1584   	; 0x180a <__stack+0xf0b>
    11da:	18 e4       	ldi	r17, 0x48	; 72
    11dc:	ff ff       	.word	0xffff	; ????
    11de:	ff ff       	.word	0xffff	; ????
    11e0:	00 00       	nop
    11e2:	ff ff       	.word	0xffff	; ????
    11e4:	ff ff       	.word	0xffff	; ????
	...
    11f2:	ff ff       	.word	0xffff	; ????
    11f4:	ff ff       	.word	0xffff	; ????
    11f6:	00 00       	nop
    11f8:	00 00       	nop
    11fa:	00 00       	nop
    11fc:	ff ff       	.word	0xffff	; ????
    11fe:	ff ff       	.word	0xffff	; ????
    1200:	00 00       	nop
    1202:	00 00       	nop
    1204:	00 00       	nop
    1206:	ff ff       	.word	0xffff	; ????
    1208:	ff ff       	.word	0xffff	; ????
    120a:	00 00       	nop
    120c:	00 00       	nop
    120e:	ff ff       	.word	0xffff	; ????
    1210:	ff ff       	.word	0xffff	; ????
    1212:	ff ff       	.word	0xffff	; ????
    1214:	00 00       	nop
    1216:	ff ff       	.word	0xffff	; ????
    1218:	ff ff       	.word	0xffff	; ????
    121a:	00 00       	nop
    121c:	00 00       	nop
    121e:	ff ff       	.word	0xffff	; ????
    1220:	ff ff       	.word	0xffff	; ????
    1222:	00 00       	nop
    1224:	10 a2       	std	Z+32, r1	; 0x20
    1226:	ff ff       	.word	0xffff	; ????
    1228:	ff ff       	.word	0xffff	; ????
    122a:	00 00       	nop
    122c:	ff ff       	.word	0xffff	; ????
    122e:	ff ff       	.word	0xffff	; ????
    1230:	18 c3       	rjmp	.+1584   	; 0x1862 <__stack+0xf63>
    1232:	18 c3       	rjmp	.+1584   	; 0x1864 <__stack+0xf65>
    1234:	ff ff       	.word	0xffff	; ????
    1236:	ff ff       	.word	0xffff	; ????
    1238:	ff ff       	.word	0xffff	; ????
    123a:	00 00       	nop
    123c:	ff ff       	.word	0xffff	; ????
    123e:	ff ff       	.word	0xffff	; ????
    1240:	ff ff       	.word	0xffff	; ????
    1242:	00 00       	nop
    1244:	00 00       	nop
    1246:	ff ff       	.word	0xffff	; ????
    1248:	ff ff       	.word	0xffff	; ????
    124a:	18 c3       	rjmp	.+1584   	; 0x187c <__stack+0xf7d>
    124c:	10 c3       	rjmp	.+1568   	; 0x186e <__stack+0xf6f>
    124e:	ff ff       	.word	0xffff	; ????
    1250:	ff ff       	.word	0xffff	; ????
    1252:	ad 76       	andi	r26, 0x6D	; 109
    1254:	00 00       	nop
    1256:	ff ff       	.word	0xffff	; ????
    1258:	ff ff       	.word	0xffff	; ????
	...
    1272:	ff ff       	.word	0xffff	; ????
    1274:	ff ff       	.word	0xffff	; ????
    1276:	ff ff       	.word	0xffff	; ????
    1278:	00 00       	nop
    127a:	00 00       	nop
    127c:	ff ff       	.word	0xffff	; ????
    127e:	ff ff       	.word	0xffff	; ????
    1280:	e7 1c       	adc	r14, r7
    1282:	00 00       	nop
    1284:	ff ff       	.word	0xffff	; ????
    1286:	ff ff       	.word	0xffff	; ????
    1288:	00 00       	nop
    128a:	00 00       	nop
    128c:	ff ff       	.word	0xffff	; ????
    128e:	ff ff       	.word	0xffff	; ????
    1290:	00 00       	nop
    1292:	ff ff       	.word	0xffff	; ????
    1294:	ff ff       	.word	0xffff	; ????
    1296:	ff ff       	.word	0xffff	; ????
    1298:	ff ff       	.word	0xffff	; ????
    129a:	ff ff       	.word	0xffff	; ????
    129c:	ff ff       	.word	0xffff	; ????
    129e:	ff ff       	.word	0xffff	; ????
    12a0:	00 00       	nop
    12a2:	ff ff       	.word	0xffff	; ????
    12a4:	ff ff       	.word	0xffff	; ????
	...
    12b2:	ff ff       	.word	0xffff	; ????
    12b4:	ff ff       	.word	0xffff	; ????
    12b6:	00 00       	nop
    12b8:	00 00       	nop
    12ba:	00 00       	nop
    12bc:	ff ff       	.word	0xffff	; ????
    12be:	ff ff       	.word	0xffff	; ????
    12c0:	00 00       	nop
    12c2:	00 00       	nop
    12c4:	00 00       	nop
    12c6:	ff ff       	.word	0xffff	; ????
    12c8:	ff ff       	.word	0xffff	; ????
    12ca:	00 00       	nop
    12cc:	00 00       	nop
    12ce:	ff ff       	.word	0xffff	; ????
    12d0:	ff ff       	.word	0xffff	; ????
    12d2:	ff ff       	.word	0xffff	; ????
    12d4:	00 00       	nop
    12d6:	ff ff       	.word	0xffff	; ????
    12d8:	ff ff       	.word	0xffff	; ????
    12da:	00 00       	nop
    12dc:	00 00       	nop
    12de:	ff ff       	.word	0xffff	; ????
    12e0:	ff ff       	.word	0xffff	; ????
    12e2:	00 00       	nop
    12e4:	00 21       	and	r16, r0
    12e6:	ff ff       	.word	0xffff	; ????
    12e8:	ff ff       	.word	0xffff	; ????
    12ea:	00 00       	nop
    12ec:	ff ff       	.word	0xffff	; ????
    12ee:	ff ff       	.word	0xffff	; ????
    12f0:	ff ff       	.word	0xffff	; ????
    12f2:	ff ff       	.word	0xffff	; ????
    12f4:	ff ff       	.word	0xffff	; ????
    12f6:	ff ff       	.word	0xffff	; ????
    12f8:	ff ff       	.word	0xffff	; ????
    12fa:	00 00       	nop
    12fc:	ff ff       	.word	0xffff	; ????
    12fe:	ff ff       	.word	0xffff	; ????
    1300:	ff ff       	.word	0xffff	; ????
    1302:	00 00       	nop
    1304:	00 00       	nop
    1306:	ff ff       	.word	0xffff	; ????
    1308:	ff ff       	.word	0xffff	; ????
    130a:	ff ff       	.word	0xffff	; ????
    130c:	ff ff       	.word	0xffff	; ????
    130e:	ff ff       	.word	0xffff	; ????
    1310:	ff ff       	.word	0xffff	; ????
    1312:	ff ff       	.word	0xffff	; ????
    1314:	00 00       	nop
    1316:	ff ff       	.word	0xffff	; ????
    1318:	ff ff       	.word	0xffff	; ????
	...
    1332:	ff ff       	.word	0xffff	; ????
    1334:	ff ff       	.word	0xffff	; ????
    1336:	ff ff       	.word	0xffff	; ????
    1338:	f7 be       	out	0x37, r15	; 55
    133a:	ff ff       	.word	0xffff	; ????
    133c:	ff ff       	.word	0xffff	; ????
    133e:	ff ff       	.word	0xffff	; ????
    1340:	00 00       	nop
    1342:	00 00       	nop
    1344:	ff ff       	.word	0xffff	; ????
    1346:	ff ff       	.word	0xffff	; ????
    1348:	ff ff       	.word	0xffff	; ????
    134a:	ff ff       	.word	0xffff	; ????
    134c:	ff ff       	.word	0xffff	; ????
    134e:	ff ff       	.word	0xffff	; ????
    1350:	00 00       	nop
    1352:	ff ff       	.word	0xffff	; ????
    1354:	ff ff       	.word	0xffff	; ????
    1356:	ff ff       	.word	0xffff	; ????
    1358:	00 00       	nop
    135a:	ff ff       	.word	0xffff	; ????
    135c:	ff ff       	.word	0xffff	; ????
    135e:	ff ff       	.word	0xffff	; ????
    1360:	00 00       	nop
    1362:	ff ff       	.word	0xffff	; ????
    1364:	ff ff       	.word	0xffff	; ????
    1366:	ff ff       	.word	0xffff	; ????
    1368:	00 00       	nop
    136a:	ff ff       	.word	0xffff	; ????
    136c:	ff ff       	.word	0xffff	; ????
    136e:	00 00       	nop
    1370:	00 00       	nop
    1372:	ff ff       	.word	0xffff	; ????
    1374:	ff ff       	.word	0xffff	; ????
    1376:	ff ff       	.word	0xffff	; ????
    1378:	ff ff       	.word	0xffff	; ????
    137a:	00 00       	nop
    137c:	ff ff       	.word	0xffff	; ????
    137e:	ff ff       	.word	0xffff	; ????
    1380:	00 00       	nop
    1382:	00 00       	nop
    1384:	00 00       	nop
    1386:	ff ff       	.word	0xffff	; ????
    1388:	ff ff       	.word	0xffff	; ????
    138a:	ff ff       	.word	0xffff	; ????
    138c:	00 00       	nop
    138e:	ff ff       	.word	0xffff	; ????
    1390:	ff ff       	.word	0xffff	; ????
    1392:	00 00       	nop
    1394:	00 00       	nop
    1396:	ff ff       	.word	0xffff	; ????
    1398:	ff ff       	.word	0xffff	; ????
    139a:	00 00       	nop
    139c:	00 00       	nop
    139e:	ff ff       	.word	0xffff	; ????
    13a0:	ff ff       	.word	0xffff	; ????
    13a2:	00 00       	nop
    13a4:	00 21       	and	r16, r0
    13a6:	ff ff       	.word	0xffff	; ????
    13a8:	ff ff       	.word	0xffff	; ????
    13aa:	00 00       	nop
    13ac:	ff ff       	.word	0xffff	; ????
    13ae:	ff ff       	.word	0xffff	; ????
    13b0:	ff ff       	.word	0xffff	; ????
    13b2:	00 00       	nop
    13b4:	ff ff       	.word	0xffff	; ????
    13b6:	ff ff       	.word	0xffff	; ????
    13b8:	ff ff       	.word	0xffff	; ????
    13ba:	00 00       	nop
    13bc:	ff ff       	.word	0xffff	; ????
    13be:	ff ff       	.word	0xffff	; ????
    13c0:	ff ff       	.word	0xffff	; ????
    13c2:	ff ff       	.word	0xffff	; ????
    13c4:	00 00       	nop
    13c6:	ff ff       	.word	0xffff	; ????
    13c8:	ff ff       	.word	0xffff	; ????
    13ca:	00 00       	nop
    13cc:	00 00       	nop
    13ce:	ff ff       	.word	0xffff	; ????
    13d0:	ff ff       	.word	0xffff	; ????
    13d2:	00 00       	nop
    13d4:	00 00       	nop
    13d6:	ff ff       	.word	0xffff	; ????
    13d8:	ff ff       	.word	0xffff	; ????
	...
    13f2:	00 00       	nop
    13f4:	ff ff       	.word	0xffff	; ????
    13f6:	ff ff       	.word	0xffff	; ????
    13f8:	ff ff       	.word	0xffff	; ????
    13fa:	ff ff       	.word	0xffff	; ????
    13fc:	ff ff       	.word	0xffff	; ????
    13fe:	00 00       	nop
    1400:	00 00       	nop
    1402:	00 00       	nop
    1404:	ff ff       	.word	0xffff	; ????
    1406:	ff ff       	.word	0xffff	; ????
    1408:	ff ff       	.word	0xffff	; ????
    140a:	ff ff       	.word	0xffff	; ????
    140c:	ff ff       	.word	0xffff	; ????
    140e:	00 00       	nop
    1410:	00 00       	nop
    1412:	00 00       	nop
    1414:	ff ff       	.word	0xffff	; ????
    1416:	ff ff       	.word	0xffff	; ????
    1418:	ff ff       	.word	0xffff	; ????
    141a:	ff ff       	.word	0xffff	; ????
    141c:	ff ff       	.word	0xffff	; ????
    141e:	00 00       	nop
    1420:	00 00       	nop
    1422:	00 00       	nop
    1424:	ff ff       	.word	0xffff	; ????
    1426:	ff ff       	.word	0xffff	; ????
    1428:	ff ff       	.word	0xffff	; ????
    142a:	ff ff       	.word	0xffff	; ????
    142c:	ff ff       	.word	0xffff	; ????
    142e:	00 00       	nop
    1430:	00 00       	nop
    1432:	ff ff       	.word	0xffff	; ????
    1434:	ff ff       	.word	0xffff	; ????
    1436:	ff ff       	.word	0xffff	; ????
    1438:	ff ff       	.word	0xffff	; ????
    143a:	00 00       	nop
    143c:	ff ff       	.word	0xffff	; ????
    143e:	ff ff       	.word	0xffff	; ????
	...
    1448:	ff ff       	.word	0xffff	; ????
    144a:	ff ff       	.word	0xffff	; ????
    144c:	ff ff       	.word	0xffff	; ????
    144e:	ff ff       	.word	0xffff	; ????
    1450:	00 00       	nop
    1452:	00 00       	nop
    1454:	00 00       	nop
    1456:	ff ff       	.word	0xffff	; ????
    1458:	ff ff       	.word	0xffff	; ????
    145a:	00 00       	nop
    145c:	00 00       	nop
    145e:	ff ff       	.word	0xffff	; ????
    1460:	ff ff       	.word	0xffff	; ????
    1462:	00 00       	nop
    1464:	00 21       	and	r16, r0
    1466:	ff ff       	.word	0xffff	; ????
    1468:	ff ff       	.word	0xffff	; ????
    146a:	00 00       	nop
    146c:	00 00       	nop
    146e:	ff ff       	.word	0xffff	; ????
    1470:	ff ff       	.word	0xffff	; ????
    1472:	ff ff       	.word	0xffff	; ????
    1474:	ff ff       	.word	0xffff	; ????
    1476:	ff ff       	.word	0xffff	; ????
    1478:	00 00       	nop
    147a:	00 00       	nop
    147c:	00 00       	nop
    147e:	ff ff       	.word	0xffff	; ????
    1480:	ff ff       	.word	0xffff	; ????
    1482:	ff ff       	.word	0xffff	; ????
    1484:	00 00       	nop
    1486:	00 00       	nop
    1488:	ff ff       	.word	0xffff	; ????
    148a:	ff ff       	.word	0xffff	; ????
    148c:	ff ff       	.word	0xffff	; ????
    148e:	ff ff       	.word	0xffff	; ????
    1490:	ff ff       	.word	0xffff	; ????
    1492:	00 00       	nop
    1494:	00 00       	nop
    1496:	ff ff       	.word	0xffff	; ????
    1498:	ff ff       	.word	0xffff	; ????
	...
    14c2:	00 00       	nop
    14c4:	ff ff       	.word	0xffff	; ????
    14c6:	ff ff       	.word	0xffff	; ????
	...
    1584:	ff ff       	.word	0xffff	; ????
    1586:	ff ff       	.word	0xffff	; ????
	...
    1ae0:	ff ff       	.word	0xffff	; ????
    1ae2:	ff ff       	.word	0xffff	; ????
    1ae4:	b5 b6       	in	r11, 0x35	; 53
    1ae6:	00 00       	nop
    1ae8:	00 00       	nop
    1aea:	00 00       	nop
    1aec:	ff ff       	.word	0xffff	; ????
    1aee:	ff ff       	.word	0xffff	; ????
    1af0:	ff ff       	.word	0xffff	; ????
    1af2:	ff ff       	.word	0xffff	; ????
    1af4:	ff ff       	.word	0xffff	; ????
    1af6:	00 00       	nop
    1af8:	00 00       	nop
    1afa:	00 00       	nop
    1afc:	ff ff       	.word	0xffff	; ????
    1afe:	ff ff       	.word	0xffff	; ????
    1b00:	ff ff       	.word	0xffff	; ????
    1b02:	ff ff       	.word	0xffff	; ????
	...
    1b0c:	00 00       	nop
    1b0e:	ff ff       	.word	0xffff	; ????
    1b10:	ff ff       	.word	0xffff	; ????
    1b12:	8c 72       	andi	r24, 0x2C	; 44
    1b14:	00 00       	nop
    1b16:	00 00       	nop
    1b18:	00 00       	nop
    1b1a:	ff ff       	.word	0xffff	; ????
    1b1c:	ff ff       	.word	0xffff	; ????
    1b1e:	ff ff       	.word	0xffff	; ????
    1b20:	ff ff       	.word	0xffff	; ????
    1b22:	ff ff       	.word	0xffff	; ????
    1b24:	00 00       	nop
    1b26:	00 00       	nop
    1b28:	00 00       	nop
    1b2a:	ff ff       	.word	0xffff	; ????
    1b2c:	ff ff       	.word	0xffff	; ????
    1b2e:	ff ff       	.word	0xffff	; ????
    1b30:	ff ff       	.word	0xffff	; ????
    1b32:	ff ff       	.word	0xffff	; ????
	...
    1b9c:	00 00       	nop
    1b9e:	ff ff       	.word	0xffff	; ????
    1ba0:	ff ff       	.word	0xffff	; ????
    1ba2:	ff ff       	.word	0xffff	; ????
    1ba4:	b5 b6       	in	r11, 0x35	; 53
    1ba6:	00 00       	nop
    1ba8:	00 00       	nop
    1baa:	ff ff       	.word	0xffff	; ????
    1bac:	ff ff       	.word	0xffff	; ????
    1bae:	f7 bf       	out	0x37, r31	; 55
    1bb0:	00 00       	nop
    1bb2:	ff ff       	.word	0xffff	; ????
    1bb4:	ff ff       	.word	0xffff	; ????
    1bb6:	00 00       	nop
    1bb8:	00 00       	nop
    1bba:	ff ff       	.word	0xffff	; ????
    1bbc:	ff ff       	.word	0xffff	; ????
    1bbe:	00 00       	nop
    1bc0:	00 00       	nop
    1bc2:	ff ff       	.word	0xffff	; ????
    1bc4:	ff ff       	.word	0xffff	; ????
    1bc6:	00 00       	nop
    1bc8:	00 00       	nop
    1bca:	00 00       	nop
    1bcc:	ff ff       	.word	0xffff	; ????
    1bce:	ff ff       	.word	0xffff	; ????
    1bd0:	ff ff       	.word	0xffff	; ????
    1bd2:	8c 72       	andi	r24, 0x2C	; 44
    1bd4:	00 00       	nop
    1bd6:	00 00       	nop
    1bd8:	ff ff       	.word	0xffff	; ????
    1bda:	ff ff       	.word	0xffff	; ????
    1bdc:	ff ff       	.word	0xffff	; ????
    1bde:	00 00       	nop
    1be0:	ff ff       	.word	0xffff	; ????
    1be2:	ff ff       	.word	0xffff	; ????
    1be4:	ff ff       	.word	0xffff	; ????
    1be6:	00 00       	nop
    1be8:	ff ff       	.word	0xffff	; ????
    1bea:	ff ff       	.word	0xffff	; ????
    1bec:	00 00       	nop
    1bee:	00 00       	nop
    1bf0:	ff ff       	.word	0xffff	; ????
    1bf2:	ff ff       	.word	0xffff	; ????
	...
    1c5c:	ff ff       	.word	0xffff	; ????
    1c5e:	ff ff       	.word	0xffff	; ????
    1c60:	ff ff       	.word	0xffff	; ????
    1c62:	ff ff       	.word	0xffff	; ????
    1c64:	b5 b6       	in	r11, 0x35	; 53
    1c66:	00 00       	nop
    1c68:	00 00       	nop
    1c6a:	ff ff       	.word	0xffff	; ????
    1c6c:	ff ff       	.word	0xffff	; ????
    1c6e:	e7 3c       	cpi	r30, 0xC7	; 199
    1c70:	00 00       	nop
    1c72:	ff ff       	.word	0xffff	; ????
    1c74:	ff ff       	.word	0xffff	; ????
    1c76:	00 00       	nop
    1c78:	00 00       	nop
    1c7a:	ff ff       	.word	0xffff	; ????
    1c7c:	ff ff       	.word	0xffff	; ????
    1c7e:	00 00       	nop
    1c80:	00 00       	nop
    1c82:	ff ff       	.word	0xffff	; ????
    1c84:	ff ff       	.word	0xffff	; ????
    1c86:	00 00       	nop
    1c88:	00 00       	nop
    1c8a:	ff ff       	.word	0xffff	; ????
    1c8c:	ff ff       	.word	0xffff	; ????
    1c8e:	ff ff       	.word	0xffff	; ????
    1c90:	ff ff       	.word	0xffff	; ????
    1c92:	8c 72       	andi	r24, 0x2C	; 44
    1c94:	00 00       	nop
    1c96:	00 00       	nop
    1c98:	ff ff       	.word	0xffff	; ????
    1c9a:	ff ff       	.word	0xffff	; ????
	...
    1ca8:	ff ff       	.word	0xffff	; ????
    1caa:	ff ff       	.word	0xffff	; ????
	...
    1d1c:	42 29       	or	r20, r2
    1d1e:	00 00       	nop
    1d20:	ff ff       	.word	0xffff	; ????
    1d22:	ff ff       	.word	0xffff	; ????
    1d24:	b5 b6       	in	r11, 0x35	; 53
    1d26:	00 00       	nop
    1d28:	00 00       	nop
    1d2a:	00 00       	nop
    1d2c:	ff ff       	.word	0xffff	; ????
    1d2e:	ff ff       	.word	0xffff	; ????
    1d30:	ff ff       	.word	0xffff	; ????
    1d32:	ff ff       	.word	0xffff	; ????
    1d34:	c6 39       	cpi	r28, 0x96	; 150
    1d36:	00 00       	nop
    1d38:	00 00       	nop
    1d3a:	ff ff       	.word	0xffff	; ????
    1d3c:	ff ff       	.word	0xffff	; ????
    1d3e:	00 00       	nop
    1d40:	00 00       	nop
    1d42:	ff ff       	.word	0xffff	; ????
    1d44:	ff ff       	.word	0xffff	; ????
    1d46:	00 00       	nop
    1d48:	00 00       	nop
    1d4a:	39 c7       	rjmp	.+3698   	; 0x2bbe <__stack+0x22bf>
    1d4c:	00 00       	nop
    1d4e:	ff ff       	.word	0xffff	; ????
    1d50:	ff ff       	.word	0xffff	; ????
    1d52:	8c 72       	andi	r24, 0x2C	; 44
    1d54:	00 00       	nop
    1d56:	00 00       	nop
    1d58:	ff ff       	.word	0xffff	; ????
    1d5a:	ff ff       	.word	0xffff	; ????
    1d5c:	ff ff       	.word	0xffff	; ????
    1d5e:	ff ff       	.word	0xffff	; ????
    1d60:	ff ff       	.word	0xffff	; ????
    1d62:	ff ff       	.word	0xffff	; ????
    1d64:	00 00       	nop
    1d66:	00 00       	nop
    1d68:	ff ff       	.word	0xffff	; ????
    1d6a:	ff ff       	.word	0xffff	; ????
    1d6c:	ff ff       	.word	0xffff	; ????
    1d6e:	ff ff       	.word	0xffff	; ????
    1d70:	ff ff       	.word	0xffff	; ????
    1d72:	ff ff       	.word	0xffff	; ????
	...
    1de0:	ff ff       	.word	0xffff	; ????
    1de2:	ff ff       	.word	0xffff	; ????
    1de4:	b5 b6       	in	r11, 0x35	; 53
    1de6:	00 00       	nop
    1de8:	00 00       	nop
    1dea:	ff ff       	.word	0xffff	; ????
    1dec:	ff ff       	.word	0xffff	; ????
    1dee:	ff ff       	.word	0xffff	; ????
    1df0:	00 00       	nop
    1df2:	ff ff       	.word	0xffff	; ????
    1df4:	ff ff       	.word	0xffff	; ????
    1df6:	00 00       	nop
    1df8:	00 00       	nop
    1dfa:	ff ff       	.word	0xffff	; ????
    1dfc:	ff ff       	.word	0xffff	; ????
    1dfe:	00 00       	nop
    1e00:	00 00       	nop
    1e02:	ff ff       	.word	0xffff	; ????
    1e04:	ff ff       	.word	0xffff	; ????
	...
    1e0e:	ff ff       	.word	0xffff	; ????
    1e10:	ff ff       	.word	0xffff	; ????
    1e12:	8c 72       	andi	r24, 0x2C	; 44
    1e14:	00 00       	nop
    1e16:	00 00       	nop
    1e18:	ff ff       	.word	0xffff	; ????
    1e1a:	ff ff       	.word	0xffff	; ????
    1e1c:	ff ff       	.word	0xffff	; ????
    1e1e:	00 00       	nop
    1e20:	ff ff       	.word	0xffff	; ????
    1e22:	ff ff       	.word	0xffff	; ????
    1e24:	ff ff       	.word	0xffff	; ????
    1e26:	00 00       	nop
    1e28:	ff ff       	.word	0xffff	; ????
    1e2a:	ff ff       	.word	0xffff	; ????
    1e2c:	00 00       	nop
    1e2e:	00 00       	nop
    1e30:	ff ff       	.word	0xffff	; ????
    1e32:	ff ff       	.word	0xffff	; ????
	...
    1ea0:	ff ff       	.word	0xffff	; ????
    1ea2:	ff ff       	.word	0xffff	; ????
    1ea4:	b5 b6       	in	r11, 0x35	; 53
    1ea6:	00 00       	nop
    1ea8:	00 00       	nop
    1eaa:	ff ff       	.word	0xffff	; ????
    1eac:	ff ff       	.word	0xffff	; ????
    1eae:	00 00       	nop
    1eb0:	00 00       	nop
    1eb2:	ff ff       	.word	0xffff	; ????
    1eb4:	ff ff       	.word	0xffff	; ????
    1eb6:	ff ff       	.word	0xffff	; ????
    1eb8:	00 00       	nop
    1eba:	ff ff       	.word	0xffff	; ????
    1ebc:	ff ff       	.word	0xffff	; ????
    1ebe:	00 00       	nop
    1ec0:	00 00       	nop
    1ec2:	ff ff       	.word	0xffff	; ????
    1ec4:	ff ff       	.word	0xffff	; ????
	...
    1ece:	ff ff       	.word	0xffff	; ????
    1ed0:	ff ff       	.word	0xffff	; ????
    1ed2:	8c 72       	andi	r24, 0x2C	; 44
    1ed4:	00 00       	nop
    1ed6:	00 00       	nop
    1ed8:	ff ff       	.word	0xffff	; ????
    1eda:	ff ff       	.word	0xffff	; ????
    1edc:	00 00       	nop
    1ede:	00 00       	nop
    1ee0:	00 00       	nop
    1ee2:	ff ff       	.word	0xffff	; ????
    1ee4:	ff ff       	.word	0xffff	; ????
    1ee6:	00 00       	nop
    1ee8:	ff ff       	.word	0xffff	; ????
    1eea:	ff ff       	.word	0xffff	; ????
    1eec:	00 00       	nop
    1eee:	00 00       	nop
    1ef0:	ff ff       	.word	0xffff	; ????
    1ef2:	ff ff       	.word	0xffff	; ????
	...
    1f60:	ff ff       	.word	0xffff	; ????
    1f62:	ff ff       	.word	0xffff	; ????
    1f64:	b5 b6       	in	r11, 0x35	; 53
    1f66:	00 00       	nop
    1f68:	00 00       	nop
    1f6a:	ff ff       	.word	0xffff	; ????
    1f6c:	ff ff       	.word	0xffff	; ????
    1f6e:	ff ff       	.word	0xffff	; ????
    1f70:	00 00       	nop
    1f72:	ff ff       	.word	0xffff	; ????
    1f74:	ff ff       	.word	0xffff	; ????
    1f76:	ff ff       	.word	0xffff	; ????
    1f78:	00 00       	nop
    1f7a:	ff ff       	.word	0xffff	; ????
    1f7c:	ff ff       	.word	0xffff	; ????
    1f7e:	ff ff       	.word	0xffff	; ????
    1f80:	ff ff       	.word	0xffff	; ????
    1f82:	ff ff       	.word	0xffff	; ????
    1f84:	ff ff       	.word	0xffff	; ????
	...
    1f8e:	ff ff       	.word	0xffff	; ????
    1f90:	ff ff       	.word	0xffff	; ????
    1f92:	8c 72       	andi	r24, 0x2C	; 44
    1f94:	00 00       	nop
    1f96:	00 00       	nop
    1f98:	29 65       	ori	r18, 0x59	; 89
    1f9a:	ff ff       	.word	0xffff	; ????
    1f9c:	ff ff       	.word	0xffff	; ????
    1f9e:	00 00       	nop
    1fa0:	ff ff       	.word	0xffff	; ????
    1fa2:	ff ff       	.word	0xffff	; ????
    1fa4:	ce 59       	subi	r28, 0x9E	; 158
    1fa6:	00 00       	nop
    1fa8:	ff ff       	.word	0xffff	; ????
    1faa:	ff ff       	.word	0xffff	; ????
    1fac:	ff ff       	.word	0xffff	; ????
    1fae:	00 00       	nop
    1fb0:	ff ff       	.word	0xffff	; ????
    1fb2:	ff ff       	.word	0xffff	; ????
	...
    2020:	ff ff       	.word	0xffff	; ????
    2022:	ff ff       	.word	0xffff	; ????
    2024:	b5 b6       	in	r11, 0x35	; 53
    2026:	00 00       	nop
    2028:	00 00       	nop
    202a:	00 00       	nop
    202c:	ff ff       	.word	0xffff	; ????
    202e:	ff ff       	.word	0xffff	; ????
    2030:	ff ff       	.word	0xffff	; ????
    2032:	ff ff       	.word	0xffff	; ????
    2034:	ff ff       	.word	0xffff	; ????
    2036:	00 00       	nop
    2038:	00 00       	nop
    203a:	00 00       	nop
    203c:	ff ff       	.word	0xffff	; ????
    203e:	ff ff       	.word	0xffff	; ????
    2040:	ff ff       	.word	0xffff	; ????
    2042:	ff ff       	.word	0xffff	; ????
	...
    204c:	00 00       	nop
    204e:	ff ff       	.word	0xffff	; ????
    2050:	ff ff       	.word	0xffff	; ????
    2052:	8c 72       	andi	r24, 0x2C	; 44
    2054:	00 00       	nop
    2056:	00 00       	nop
    2058:	00 00       	nop
    205a:	ff ff       	.word	0xffff	; ????
    205c:	ff ff       	.word	0xffff	; ????
    205e:	ff ff       	.word	0xffff	; ????
    2060:	ff ff       	.word	0xffff	; ????
    2062:	ff ff       	.word	0xffff	; ????
    2064:	00 00       	nop
    2066:	00 00       	nop
    2068:	00 00       	nop
    206a:	ff ff       	.word	0xffff	; ????
    206c:	ff ff       	.word	0xffff	; ????
    206e:	ff ff       	.word	0xffff	; ????
    2070:	ff ff       	.word	0xffff	; ????
	...
    26c2:	ff ff       	.word	0xffff	; ????
    26c4:	ff ff       	.word	0xffff	; ????
    26c6:	29 45       	sbci	r18, 0x59	; 89
    26c8:	00 00       	nop
    26ca:	00 00       	nop
    26cc:	00 00       	nop
    26ce:	ff ff       	.word	0xffff	; ????
    26d0:	ff ff       	.word	0xffff	; ????
	...
    26fa:	00 00       	nop
    26fc:	ff ff       	.word	0xffff	; ????
    26fe:	ff ff       	.word	0xffff	; ????
	...
    272c:	00 00       	nop
    272e:	ff ff       	.word	0xffff	; ????
    2730:	ff ff       	.word	0xffff	; ????
    2732:	ff ff       	.word	0xffff	; ????
	...
    2740:	00 00       	nop
    2742:	ff ff       	.word	0xffff	; ????
    2744:	ff ff       	.word	0xffff	; ????
    2746:	ff ff       	.word	0xffff	; ????
    2748:	ff ff       	.word	0xffff	; ????
    274a:	ff ff       	.word	0xffff	; ????
	...
    2780:	00 00       	nop
    2782:	ff ff       	.word	0xffff	; ????
    2784:	ff ff       	.word	0xffff	; ????
    2786:	ff ff       	.word	0xffff	; ????
    2788:	00 00       	nop
    278a:	00 00       	nop
    278c:	ff ff       	.word	0xffff	; ????
    278e:	ff ff       	.word	0xffff	; ????
    2790:	ff ff       	.word	0xffff	; ????
	...
    27ea:	00 00       	nop
    27ec:	ff ff       	.word	0xffff	; ????
    27ee:	ff ff       	.word	0xffff	; ????
    27f0:	ff ff       	.word	0xffff	; ????
    27f2:	ff ff       	.word	0xffff	; ????
	...
    2800:	ff ff       	.word	0xffff	; ????
    2802:	ff ff       	.word	0xffff	; ????
    2804:	ff ff       	.word	0xffff	; ????
    2806:	00 00       	nop
    2808:	ff ff       	.word	0xffff	; ????
    280a:	ff ff       	.word	0xffff	; ????
	...
    2844:	ff ff       	.word	0xffff	; ????
    2846:	ff ff       	.word	0xffff	; ????
    2848:	00 00       	nop
    284a:	00 00       	nop
    284c:	ff ff       	.word	0xffff	; ????
    284e:	ff ff       	.word	0xffff	; ????
    2850:	63 4d       	sbci	r22, 0xD3	; 211
    2852:	00 00       	nop
    2854:	08 41       	sbci	r16, 0x18	; 24
    2856:	ff ff       	.word	0xffff	; ????
    2858:	ff ff       	.word	0xffff	; ????
    285a:	ff ff       	.word	0xffff	; ????
    285c:	ff ff       	.word	0xffff	; ????
    285e:	00 00       	nop
    2860:	00 00       	nop
    2862:	ff ff       	.word	0xffff	; ????
    2864:	ff ff       	.word	0xffff	; ????
    2866:	00 00       	nop
    2868:	ff ff       	.word	0xffff	; ????
    286a:	ff ff       	.word	0xffff	; ????
    286c:	00 00       	nop
    286e:	ff ff       	.word	0xffff	; ????
    2870:	ff ff       	.word	0xffff	; ????
    2872:	ff ff       	.word	0xffff	; ????
    2874:	ff ff       	.word	0xffff	; ????
    2876:	ff ff       	.word	0xffff	; ????
    2878:	00 00       	nop
    287a:	00 00       	nop
    287c:	ff ff       	.word	0xffff	; ????
    287e:	ff ff       	.word	0xffff	; ????
    2880:	00 00       	nop
    2882:	00 00       	nop
    2884:	94 92       	xch	Z, r9
    2886:	ff ff       	.word	0xffff	; ????
    2888:	ff ff       	.word	0xffff	; ????
    288a:	ff ff       	.word	0xffff	; ????
    288c:	ff ff       	.word	0xffff	; ????
    288e:	00 00       	nop
    2890:	00 00       	nop
    2892:	ff ff       	.word	0xffff	; ????
    2894:	ff ff       	.word	0xffff	; ????
    2896:	00 00       	nop
    2898:	ff ff       	.word	0xffff	; ????
    289a:	ff ff       	.word	0xffff	; ????
    289c:	ff ff       	.word	0xffff	; ????
	...
    28aa:	ff ff       	.word	0xffff	; ????
    28ac:	ff ff       	.word	0xffff	; ????
    28ae:	ff ff       	.word	0xffff	; ????
    28b0:	ff ff       	.word	0xffff	; ????
    28b2:	ff ff       	.word	0xffff	; ????
	...
    28c0:	ff ff       	.word	0xffff	; ????
    28c2:	ff ff       	.word	0xffff	; ????
    28c4:	00 00       	nop
    28c6:	00 00       	nop
    28c8:	ff ff       	.word	0xffff	; ????
    28ca:	ff ff       	.word	0xffff	; ????
    28cc:	ff ff       	.word	0xffff	; ????
	...
    2902:	00 00       	nop
    2904:	ff ff       	.word	0xffff	; ????
    2906:	ff ff       	.word	0xffff	; ????
    2908:	00 00       	nop
    290a:	00 00       	nop
    290c:	ff ff       	.word	0xffff	; ????
    290e:	ff ff       	.word	0xffff	; ????
    2910:	00 00       	nop
    2912:	00 00       	nop
    2914:	ff ff       	.word	0xffff	; ????
    2916:	ff ff       	.word	0xffff	; ????
    2918:	00 00       	nop
    291a:	5a cb       	rjmp	.-2380   	; 0x1fd0 <__stack+0x16d1>
    291c:	ff ff       	.word	0xffff	; ????
    291e:	ff ff       	.word	0xffff	; ????
    2920:	00 00       	nop
    2922:	ff ff       	.word	0xffff	; ????
    2924:	ff ff       	.word	0xffff	; ????
    2926:	ff ff       	.word	0xffff	; ????
    2928:	ff ff       	.word	0xffff	; ????
    292a:	00 00       	nop
    292c:	21 45       	sbci	r18, 0x51	; 81
    292e:	ff ff       	.word	0xffff	; ????
    2930:	ff ff       	.word	0xffff	; ????
    2932:	00 00       	nop
    2934:	ff ff       	.word	0xffff	; ????
    2936:	ff ff       	.word	0xffff	; ????
    2938:	00 00       	nop
    293a:	00 00       	nop
    293c:	ff ff       	.word	0xffff	; ????
    293e:	ff ff       	.word	0xffff	; ????
    2940:	00 00       	nop
    2942:	00 00       	nop
    2944:	ff ff       	.word	0xffff	; ????
    2946:	ff ff       	.word	0xffff	; ????
    2948:	18 e4       	ldi	r17, 0x48	; 72
    294a:	ff ff       	.word	0xffff	; ????
    294c:	ff ff       	.word	0xffff	; ????
    294e:	ff ff       	.word	0xffff	; ????
    2950:	00 00       	nop
    2952:	ff ff       	.word	0xffff	; ????
    2954:	ff ff       	.word	0xffff	; ????
    2956:	ff ff       	.word	0xffff	; ????
    2958:	ff ff       	.word	0xffff	; ????
    295a:	ff ff       	.word	0xffff	; ????
    295c:	ff ff       	.word	0xffff	; ????
	...
    296a:	7b f0       	brvs	.+30     	; 0x298a <__stack+0x208b>
    296c:	00 00       	nop
    296e:	ff ff       	.word	0xffff	; ????
    2970:	ff ff       	.word	0xffff	; ????
    2972:	ff ff       	.word	0xffff	; ????
	...
    2980:	ff ff       	.word	0xffff	; ????
    2982:	ff ff       	.word	0xffff	; ????
    2984:	00 00       	nop
    2986:	00 00       	nop
    2988:	ff ff       	.word	0xffff	; ????
    298a:	ff ff       	.word	0xffff	; ????
    298c:	ff ff       	.word	0xffff	; ????
	...
    29c2:	00 00       	nop
    29c4:	ff ff       	.word	0xffff	; ????
    29c6:	ff ff       	.word	0xffff	; ????
    29c8:	ff ff       	.word	0xffff	; ????
    29ca:	ff ff       	.word	0xffff	; ????
    29cc:	ff ff       	.word	0xffff	; ????
    29ce:	ff ff       	.word	0xffff	; ????
    29d0:	00 00       	nop
    29d2:	ff ff       	.word	0xffff	; ????
    29d4:	ff ff       	.word	0xffff	; ????
    29d6:	ff ff       	.word	0xffff	; ????
    29d8:	ff ff       	.word	0xffff	; ????
    29da:	ff ff       	.word	0xffff	; ????
    29dc:	ff ff       	.word	0xffff	; ????
    29de:	ff ff       	.word	0xffff	; ????
    29e0:	00 00       	nop
    29e2:	ff ff       	.word	0xffff	; ????
    29e4:	ff ff       	.word	0xffff	; ????
    29e6:	ff ff       	.word	0xffff	; ????
    29e8:	00 00       	nop
    29ea:	00 00       	nop
    29ec:	00 00       	nop
    29ee:	ff ff       	.word	0xffff	; ????
    29f0:	ff ff       	.word	0xffff	; ????
    29f2:	ff ff       	.word	0xffff	; ????
    29f4:	ff ff       	.word	0xffff	; ????
    29f6:	ff ff       	.word	0xffff	; ????
    29f8:	00 00       	nop
    29fa:	00 00       	nop
    29fc:	ff ff       	.word	0xffff	; ????
    29fe:	ff ff       	.word	0xffff	; ????
    2a00:	00 00       	nop
    2a02:	ff ff       	.word	0xffff	; ????
    2a04:	ff ff       	.word	0xffff	; ????
    2a06:	ff ff       	.word	0xffff	; ????
    2a08:	00 00       	nop
    2a0a:	00 00       	nop
    2a0c:	ff ff       	.word	0xffff	; ????
    2a0e:	ff ff       	.word	0xffff	; ????
    2a10:	00 00       	nop
    2a12:	ff ff       	.word	0xffff	; ????
    2a14:	ff ff       	.word	0xffff	; ????
    2a16:	9c d3       	rcall	.+1848   	; 0x3150 <gImage_elektor_logo+0x268>
    2a18:	00 00       	nop
    2a1a:	ff ff       	.word	0xffff	; ????
    2a1c:	ff ff       	.word	0xffff	; ????
    2a1e:	21 45       	sbci	r18, 0x51	; 81
	...
    2a2c:	00 00       	nop
    2a2e:	ff ff       	.word	0xffff	; ????
    2a30:	ff ff       	.word	0xffff	; ????
    2a32:	ff ff       	.word	0xffff	; ????
	...
    2a40:	ff ff       	.word	0xffff	; ????
    2a42:	ff ff       	.word	0xffff	; ????
    2a44:	00 00       	nop
    2a46:	00 00       	nop
    2a48:	ff ff       	.word	0xffff	; ????
    2a4a:	ff ff       	.word	0xffff	; ????
    2a4c:	ff ff       	.word	0xffff	; ????
	...
    2a86:	ff ff       	.word	0xffff	; ????
    2a88:	ff ff       	.word	0xffff	; ????
    2a8a:	ff ff       	.word	0xffff	; ????
    2a8c:	ff ff       	.word	0xffff	; ????
    2a8e:	00 00       	nop
    2a90:	00 00       	nop
    2a92:	ff ff       	.word	0xffff	; ????
    2a94:	ff ff       	.word	0xffff	; ????
    2a96:	ff ff       	.word	0xffff	; ????
    2a98:	ff ff       	.word	0xffff	; ????
    2a9a:	ff ff       	.word	0xffff	; ????
    2a9c:	ff ff       	.word	0xffff	; ????
    2a9e:	ff ff       	.word	0xffff	; ????
    2aa0:	00 00       	nop
    2aa2:	ff ff       	.word	0xffff	; ????
    2aa4:	ff ff       	.word	0xffff	; ????
    2aa6:	ff ff       	.word	0xffff	; ????
	...
    2ab0:	94 b3       	in	r25, 0x14	; 20
    2ab2:	ff ff       	.word	0xffff	; ????
    2ab4:	ff ff       	.word	0xffff	; ????
    2ab6:	ff ff       	.word	0xffff	; ????
    2ab8:	ce 59       	subi	r28, 0x9E	; 158
    2aba:	00 00       	nop
    2abc:	ff ff       	.word	0xffff	; ????
    2abe:	ff ff       	.word	0xffff	; ????
    2ac0:	00 00       	nop
    2ac2:	ff ff       	.word	0xffff	; ????
    2ac4:	ff ff       	.word	0xffff	; ????
    2ac6:	ff ff       	.word	0xffff	; ????
    2ac8:	00 00       	nop
    2aca:	00 00       	nop
    2acc:	ff ff       	.word	0xffff	; ????
    2ace:	ff ff       	.word	0xffff	; ????
    2ad0:	00 00       	nop
    2ad2:	ff ff       	.word	0xffff	; ????
    2ad4:	ff ff       	.word	0xffff	; ????
    2ad6:	00 00       	nop
    2ad8:	00 00       	nop
    2ada:	ff ff       	.word	0xffff	; ????
    2adc:	ff ff       	.word	0xffff	; ????
    2ade:	21 45       	sbci	r18, 0x51	; 81
	...
    2aec:	00 00       	nop
    2aee:	ff ff       	.word	0xffff	; ????
    2af0:	ff ff       	.word	0xffff	; ????
    2af2:	ff ff       	.word	0xffff	; ????
	...
    2b00:	ff ff       	.word	0xffff	; ????
    2b02:	ff ff       	.word	0xffff	; ????
    2b04:	00 00       	nop
    2b06:	00 00       	nop
    2b08:	ff ff       	.word	0xffff	; ????
    2b0a:	ff ff       	.word	0xffff	; ????
    2b0c:	ad 76       	andi	r26, 0x6D	; 109
	...
    2b46:	ff ff       	.word	0xffff	; ????
    2b48:	ff ff       	.word	0xffff	; ????
    2b4a:	ff ff       	.word	0xffff	; ????
    2b4c:	ff ff       	.word	0xffff	; ????
    2b4e:	00 00       	nop
    2b50:	00 00       	nop
    2b52:	00 00       	nop
    2b54:	ff ff       	.word	0xffff	; ????
    2b56:	ff ff       	.word	0xffff	; ????
    2b58:	00 00       	nop
    2b5a:	52 8a       	std	Z+18, r5	; 0x12
    2b5c:	ff ff       	.word	0xffff	; ????
    2b5e:	ff ff       	.word	0xffff	; ????
    2b60:	00 00       	nop
    2b62:	ff ff       	.word	0xffff	; ????
    2b64:	ff ff       	.word	0xffff	; ????
    2b66:	ff ff       	.word	0xffff	; ????
    2b68:	00 00       	nop
    2b6a:	00 00       	nop
    2b6c:	ff ff       	.word	0xffff	; ????
    2b6e:	ff ff       	.word	0xffff	; ????
    2b70:	ff ff       	.word	0xffff	; ????
    2b72:	00 00       	nop
    2b74:	ff ff       	.word	0xffff	; ????
    2b76:	ff ff       	.word	0xffff	; ????
    2b78:	ff df       	rcall	.-2      	; 0x2b78 <__stack+0x2279>
    2b7a:	00 00       	nop
    2b7c:	ff ff       	.word	0xffff	; ????
    2b7e:	ff ff       	.word	0xffff	; ????
    2b80:	00 00       	nop
    2b82:	00 00       	nop
    2b84:	ff ff       	.word	0xffff	; ????
    2b86:	ff ff       	.word	0xffff	; ????
    2b88:	94 92       	xch	Z, r9
    2b8a:	ff ff       	.word	0xffff	; ????
    2b8c:	ff ff       	.word	0xffff	; ????
    2b8e:	ff ff       	.word	0xffff	; ????
    2b90:	00 00       	nop
    2b92:	ff ff       	.word	0xffff	; ????
    2b94:	ff ff       	.word	0xffff	; ????
    2b96:	00 00       	nop
    2b98:	00 00       	nop
    2b9a:	ff ff       	.word	0xffff	; ????
    2b9c:	ff ff       	.word	0xffff	; ????
    2b9e:	21 45       	sbci	r18, 0x51	; 81
	...
    2bac:	00 00       	nop
    2bae:	ff ff       	.word	0xffff	; ????
    2bb0:	ff ff       	.word	0xffff	; ????
    2bb2:	ff ff       	.word	0xffff	; ????
    2bb4:	00 00       	nop
    2bb6:	00 00       	nop
    2bb8:	ff ff       	.word	0xffff	; ????
    2bba:	ff ff       	.word	0xffff	; ????
    2bbc:	ff ff       	.word	0xffff	; ????
    2bbe:	00 00       	nop
    2bc0:	ff ff       	.word	0xffff	; ????
    2bc2:	ff ff       	.word	0xffff	; ????
    2bc4:	ff ff       	.word	0xffff	; ????
    2bc6:	ff ff       	.word	0xffff	; ????
    2bc8:	ff ff       	.word	0xffff	; ????
    2bca:	ff ff       	.word	0xffff	; ????
	...
    2c08:	ff ff       	.word	0xffff	; ????
    2c0a:	ff ff       	.word	0xffff	; ????
    2c0c:	ff ff       	.word	0xffff	; ????
	...
    2c16:	ff ff       	.word	0xffff	; ????
    2c18:	ff ff       	.word	0xffff	; ????
    2c1a:	ff ff       	.word	0xffff	; ????
    2c1c:	ff ff       	.word	0xffff	; ????
    2c1e:	00 00       	nop
    2c20:	00 00       	nop
    2c22:	ff ff       	.word	0xffff	; ????
    2c24:	ff ff       	.word	0xffff	; ????
    2c26:	ff ff       	.word	0xffff	; ????
    2c28:	00 00       	nop
    2c2a:	00 00       	nop
    2c2c:	00 00       	nop
    2c2e:	ff ff       	.word	0xffff	; ????
    2c30:	ff ff       	.word	0xffff	; ????
    2c32:	ff ff       	.word	0xffff	; ????
    2c34:	ff ff       	.word	0xffff	; ????
    2c36:	ff ff       	.word	0xffff	; ????
    2c38:	00 00       	nop
    2c3a:	00 00       	nop
    2c3c:	ff ff       	.word	0xffff	; ????
    2c3e:	ff ff       	.word	0xffff	; ????
    2c40:	00 00       	nop
    2c42:	00 00       	nop
    2c44:	00 00       	nop
    2c46:	ff ff       	.word	0xffff	; ????
    2c48:	ff ff       	.word	0xffff	; ????
    2c4a:	ff ff       	.word	0xffff	; ????
    2c4c:	ff ff       	.word	0xffff	; ????
    2c4e:	00 00       	nop
    2c50:	00 00       	nop
    2c52:	ff ff       	.word	0xffff	; ????
    2c54:	ff ff       	.word	0xffff	; ????
    2c56:	00 00       	nop
    2c58:	00 00       	nop
    2c5a:	ff ff       	.word	0xffff	; ????
    2c5c:	ff ff       	.word	0xffff	; ????
    2c5e:	21 45       	sbci	r18, 0x51	; 81
	...
    2c6c:	00 00       	nop
    2c6e:	ff ff       	.word	0xffff	; ????
    2c70:	ff ff       	.word	0xffff	; ????
    2c72:	ff ff       	.word	0xffff	; ????
    2c74:	00 00       	nop
    2c76:	00 00       	nop
    2c78:	ff ff       	.word	0xffff	; ????
    2c7a:	ff ff       	.word	0xffff	; ????
    2c7c:	ff ff       	.word	0xffff	; ????
    2c7e:	00 00       	nop
    2c80:	00 00       	nop
    2c82:	ff ff       	.word	0xffff	; ????
    2c84:	ff ff       	.word	0xffff	; ????
    2c86:	ff ff       	.word	0xffff	; ????
    2c88:	ff ff       	.word	0xffff	; ????
	...

00002ee8 <gImage_elektor_logo>:
    2ee8:	ff ff ff ff ff ff ff ff ff ff ff ff ff ff ff ff     ................
    2ef8:	ff ff ff ff ff ff ff ff ff ff ff ff ff ff ff ff     ................
    2f08:	ff ff ff ff ff ff ff ff ff ff ff ff ff ff ff ff     ................
    2f18:	ff ff ff ff ff ff ff ff ff ff ff ff ff ff ff ff     ................
    2f28:	ff ff ff ff ff ff ff ff ff ff ff ff ff ff ff ff     ................
    2f38:	ff ff ff ff ff ff ff ff ff ff ff ff ff ff ff ff     ................
    2f48:	ff ff ff ff ff ff ff ff ff ff ff ff ff ff ff ff     ................
    2f58:	ff ff ff ff ff ff ff ff ff ff ff ff ff ff ff ff     ................
    2f68:	ff ff ff ff ff ff ff ff ff ff ff ff ff ff ff ff     ................
    2f78:	ff ff ff ff ff ff ff ff ff ff ff ff ff ff ff ff     ................
    2f88:	ff ff ff ff ff ff ff ff ff ff ff ff ff ff ff ff     ................
    2f98:	ff ff ff ff ff ff ff ff ff ff ff ff ff ff ff ff     ................
    2fa8:	ff ff ff ff ff ff ff ff ff ff ff ff ff ff ff ff     ................
    2fb8:	ff ff ff ff ff ff ff ff ff ff ff ff ff ff ff ff     ................
    2fc8:	ff ff ff ff ff ff ff ff ff ff ff ff ff ff ff ff     ................
    2fd8:	ff ff ff ff ff ff ff ff ff ff ff ff ff ff ff ff     ................
    2fe8:	ff ff ff ff ff ff ff ff ff ff ff ff ff ff ff ff     ................
    2ff8:	ff ff ff ff ff ff ff ff ff ff ff ff ff ff ff ff     ................
    3008:	ff ff ff ff ff ff ff ff ff ff ff ff ff ff ff ff     ................
    3018:	ff ff ff ff ff ff ff ff ff ff ff ff ff ff ff ff     ................
    3028:	ff ff ff ff ff ff ff ff ff ff ff ff ff ff ff ff     ................
    3038:	ff ff ff ff ff ff ff ff ff ff ff ff ff ff ff ff     ................
    3048:	ff ff ff ff ff ff ff ff ff ff ff ff ff ff ff ff     ................
    3058:	ff ff ff ff ff ff ff ff ff ff ff ff ff ff ff ff     ................
    3068:	ff ff ff ff ff ff ff ff ff ff ff ff ff ff ff ff     ................
    3078:	ff ff ff ff ff ff ff ff ff ff ff ff ff ff ff ff     ................
    3088:	ff ff ff ff ff ff ff ff ff ff ff ff ff ff ff ff     ................
    3098:	ff ff ff ff ff ff ff ff ff ff ff ff ff ff ff ff     ................
    30a8:	ff ff ff ff ff ff ff ff ff ff ff ff ff ff ff ff     ................
    30b8:	ff ff ff ff ff ff ff ff ff ff ff ff ff ff ff ff     ................
    30c8:	ff ff ff ff ff ff ff ff ff ff ff ff ff ff ff ff     ................
    30d8:	ff ff ff ff ff ff ff ff ff ff ff ff ff ff ff ff     ................
    30e8:	ff ff ff ff ff ff ff ff ff ff ff ff ff ff ff ff     ................
    30f8:	ff ff ff ff ff ff ff ff ff ff ff ff ff ff ff ff     ................
    3108:	ff ff ff ff ff ff ff ff ff ff ff ff ff ff ff ff     ................
    3118:	ff ff ff ff ff ff ff ff ff ff ff ff ff ff ff ff     ................
    3128:	ff ff ff ff ff ff ff ff ff ff ff ff ff ff ff ff     ................
    3138:	ff ff ff ff ff ff ff ff ff ff ff ff ff ff ff ff     ................
    3148:	ff ff ff ff ff ff ff ff ff ff ff ff ff ff ff ff     ................
    3158:	ff ff ff ff ff ff ff ff ff ff ff ff ff ff ff ff     ................
    3168:	ff ff ff ff ff ff ff ff ff ff ff ff ff ff ff ff     ................
    3178:	ff ff ff ff ff ff ff ff ff ff ff ff ff ff ff ff     ................
    3188:	ff ff ff ff ff ff ff ff ff ff ff ff ff ff ff ff     ................
    3198:	ff ff ff ff ff ff ff ff ff ff ff ff ff ff ff ff     ................
    31a8:	ff ff ff ff ff ff ff ff ff ff ff ff ff ff ff ff     ................
    31b8:	ff ff ff ff ff ff ff ff ff ff ff ff ff ff ff ff     ................
    31c8:	ff ff ff ff ff ff ff ff ff ff ff ff ff ff ff ff     ................
    31d8:	ff ff ff ff ff ff ff ff ff ff ff ff ff ff ff ff     ................
    31e8:	ff ff ff ff ff ff ff ff ff ff ff ff ff ff ff ff     ................
    31f8:	ff ff ff ff ff ff ff ff ff ff ff ff ff ff ff ff     ................
    3208:	ff ff ff ff ff ff ff ff ff ff ff ff ff ff ff ff     ................
    3218:	ff ff ff ff ff ff ff ff ff ff ff ff ff ff ff ff     ................
    3228:	ff ff ff ff ff ff ff ff ff ff ff ff ff ff ff ff     ................
    3238:	ff ff ff ff ff ff ff ff ff ff ff ff ff ff ff ff     ................
    3248:	ff ff ff ff ff ff ff ff ff ff ff ff ff ff ff ff     ................
    3258:	ff ff ff ff ff ff ff ff ff ff ff ff ff ff ff ff     ................
    3268:	ff ff ff ff ff ff ff ff ff ff ff ff ff ff ff ff     ................
    3278:	ff ff ff ff ff ff ff ff ff ff ff ff ff ff ff ff     ................
    3288:	ff ff ff ff ff ff ff ff ff ff ff ff ff ff ff ff     ................
    3298:	ff ff ff ff ff ff ff ff ff ff ff ff ff ff ff ff     ................
    32a8:	ff ff ff ff ff ff ff ff ff ff ff ff ff ff ff ff     ................
    32b8:	ff ff ff ff ff ff ff ff ff ff ff ff ff ff ff ff     ................
    32c8:	ff ff ff ff ff ff ff ff ff ff ff ff ff ff ff ff     ................
    32d8:	ff ff ff ff ff ff ff ff ff ff ff ff ff ff ff ff     ................
    32e8:	ff ff ff ff ff ff ff ff ff ff ff ff ff ff ff ff     ................
    32f8:	ff ff ff ff ff ff ff ff ff ff ff ff ff ff ff ff     ................
    3308:	ff ff ff ff ff ff ff ff ff ff ff ff ff ff ff ff     ................
    3318:	ff ff ff ff ff ff ff ff ff ff ff ff ff ff ff ff     ................
    3328:	ff ff ff ff ff ff ff ff ff ff ff ff ff ff ff ff     ................
    3338:	ff ff ff ff ff ff ff ff ff ff ff ff ff ff ff ff     ................
    3348:	ff ff ff ff ff ff ff ff ff ff ff ff ff ff ff ff     ................
    3358:	ff ff ff ff ff ff ff ff ff ff ff ff ff ff ff ff     ................
    3368:	ff ff ff ff ff ff ff ff ff ff ff ff ff ff ff ff     ................
    3378:	ff ff ff ff ff ff ff ff ff ff ff ff ff ff ff ff     ................
    3388:	ff ff ff ff ff ff ff ff ff ff ff ff ff ff ff ff     ................
    3398:	ff ff ff ff ff ff ff ff ff ff ff ff ff ff ff ff     ................
    33a8:	ff ff ff ff ff ff ff ff ff ff ff ff ff ff ff ff     ................
    33b8:	ff ff ff ff ff ff ff ff ff ff ff ff ff ff ff ff     ................
    33c8:	ff ff ff ff ff ff ff ff ff ff ff ff ff ff ff ff     ................
    33d8:	ff ff ff ff ff ff ff ff ff ff ff ff ff ff ff ff     ................
    33e8:	ff ff ff ff ff ff ff ff ff ff ff ff ff ff ff ff     ................
    33f8:	ff ff ff ff ff ff ff ff ff ff ff ff ff ff ff ff     ................
    3408:	ff ff ff ff ff ff ff ff ff ff ff ff ff ff ff ff     ................
    3418:	ff ff ff ff ff ff ff ff ff ff ff ff ff ff ff ff     ................
    3428:	ff ff ff ff ff ff ff ff ff ff ff ff ff ff ff ff     ................
    3438:	ff ff ff ff ff ff ff ff ff ff ff ff ff ff ff ff     ................
    3448:	ff ff ff ff ff ff ff ff ff ff ff ff ff ff ff ff     ................
    3458:	ff ff ff ff ff ff ff ff ff ff ff ff ff ff ff ff     ................
    3468:	ff ff ff ff ff ff ff ff ff ff ff ff ff ff ff ff     ................
    3478:	ff ff ff ff ff ff ff ff ff ff ff ff ff ff ff ff     ................
    3488:	ff ff ff ff ff ff ff ff ff ff ff ff ff ff ff ff     ................
    3498:	ff ff ff ff ff ff ff ff ff ff ff ff ff ff ff ff     ................
    34a8:	ff ff ff ff ff ff ff ff ff ff ff ff ff ff ff ff     ................
    34b8:	ff ff ff ff ff ff ff ff ff ff ff ff ff ff ff ff     ................
    34c8:	ff ff ff ff ff ff ff ff ff ff ff ff ff ff ff ff     ................
    34d8:	ff ff ff ff ff ff ff ff ff ff ff ff ff ff ff ff     ................
    34e8:	ff ff ff ff ff ff ff ff ff ff ff ff ff ff ff ff     ................
    34f8:	ff ff ff ff ff ff ff ff ff ff fe 17 f8 00 f8 00     ................
    3508:	f8 00 f8 00 fb 8c ff ff ff ff ff ff ff ff ff ff     ................
    3518:	ff ff ff ff ff ff ff ff ff ff ff ff ff ff ff ff     ................
    3528:	ff ff ff ff ff ff ff ff ff ff ff ff ff ff ff ff     ................
    3538:	ff ff ff ff ff ff ff ff ff ff ff ff ff ff ff ff     ................
    3548:	ff ff ff ff ff ff ff ff ff ff ff ff ff ff ff ff     ................
    3558:	ff ff ff ff ff ff ff ff ff ff ff ff ff ff ff ff     ................
    3568:	ff ff ff ff ff ff ff ff ff ff ff ff ff ff ff ff     ................
    3578:	ff ff ff ff ff ff ff ff ff ff ff ff ff ff ff ff     ................
    3588:	ff ff ff ff ff ff ff ff ff ff ff ff ff ff ff ff     ................
    3598:	ff ff ff ff ff ff ff ff ff ff ff ff ff ff ff ff     ................
    35a8:	ff ff ff ff ff ff ff ff ff ff ff ff ff ff ff ff     ................
    35b8:	ff ff ff ff f8 00 f8 00 f8 00 f8 00 f8 00 f8 00     ................
    35c8:	f8 00 f8 00 f8 00 f8 00 f8 00 f8 00 ff ff ff ff     ................
    35d8:	ff ff ff ff ff ff ff ff ff ff ff ff ff ff ff ff     ................
    35e8:	ff ff ff ff ff ff ff ff ff ff ff ff ff ff ff ff     ................
    35f8:	ff ff ff ff ff ff ff ff ff ff ff ff ff ff ff ff     ................
    3608:	ff ff ff ff ff ff ff ff ff ff ff ff ff ff ff ff     ................
    3618:	ff ff ff ff ff ff ff ff ff ff ff ff ff ff ff ff     ................
    3628:	ff ff ff ff ff ff ff ff ff ff ff ff ff ff ff ff     ................
    3638:	ff ff ff ff ff ff ff ff ff ff ff ff ff ff ff ff     ................
    3648:	ff ff ff ff ff ff ff ff ff ff ff ff ff ff ff ff     ................
    3658:	ff ff ff ff ff ff ff ff ff ff ff ff ff ff ff ff     ................
    3668:	ff ff ff ff ff ff ff ff ff ff ff ff ff ff ff ff     ................
    3678:	f8 00 f8 00 f8 00 f8 00 f8 00 f8 00 f8 00 f8 00     ................
    3688:	f8 00 f8 00 f8 00 f8 00 f8 00 f8 00 f8 00 f8 00     ................
    3698:	ff ff ff ff ff ff ff ff ff ff ff ff ff ff ff ff     ................
    36a8:	ff ff ff ff ff ff ff ff ff ff ff ff ff ff ff ff     ................
    36b8:	ff ff ff ff ff ff ff ff ff ff ff ff ff ff ff ff     ................
    36c8:	ff ff ff ff ff ff ff ff ff ff ff ff ff ff ff ff     ................
    36d8:	ff ff ff ff ff ff ff ff ff ff ff ff ff ff ff ff     ................
    36e8:	ff ff ff ff ff ff ff ff ff ff ff ff ff ff ff ff     ................
    36f8:	ff ff ff ff ff ff ff ff ff ff ff ff ff ff ff ff     ................
    3708:	ff ff ff ff ff ff ff ff ff ff ff ff ff ff ff ff     ................
    3718:	ff ff ff ff ff ff ff ff ff ff ff ff ff ff ff ff     ................
    3728:	ff ff ff ff ff ff ff ff ff ff ff ff fc b2 f8 00     ................
    3738:	f8 00 f8 00 f8 00 f8 00 f8 00 f8 00 f8 00 f8 00     ................
    3748:	f8 00 f8 00 f8 00 f8 00 f8 00 f8 00 f8 00 f8 00     ................
    3758:	f8 00 f8 00 ff ff ff ff ff ff ff ff ff ff ff ff     ................
    3768:	ff ff ff ff ff ff ff ff ff ff ff ff ff ff ff ff     ................
    3778:	ff ff ff ff ff ff ff ff ff ff ff ff ff ff ff ff     ................
    3788:	ff ff ff ff ff ff ff ff ff ff ff ff ff ff ff ff     ................
    3798:	ff ff ff ff ff ff ff ff ff ff ff ff ff ff ff ff     ................
    37a8:	ff ff ff ff ff ff ff ff ff ff ff ff ff ff ff ff     ................
    37b8:	ff ff ff ff ff ff ff ff ff ff ff ff ff ff ff ff     ................
    37c8:	ff ff ff ff ff ff ff ff ff ff ff ff ff ff ff ff     ................
    37d8:	ff ff ff ff ff ff ff ff ff ff ff ff ff ff ff ff     ................
    37e8:	ff ff ff ff ff ff ff ff ff ff f8 42 f8 00 f8 00     ...........B....
    37f8:	f8 00 f8 00 f8 00 f8 00 fc b3 ff ff ff ff ff ff     ................
    3808:	ff ff ff ff ff ff fe ba f8 00 f8 00 f8 00 f8 00     ................
    3818:	f8 00 f8 00 f8 00 ff ff ff ff ff ff ff ff ff ff     ................
    3828:	ff ff ff ff ff ff ff ff ff ff ff ff ff ff ff ff     ................
    3838:	ff ff ff ff ff ff ff ff ff ff ff ff ff ff ff ff     ................
    3848:	ff ff ff ff ff ff ff ff ff ff ff ff ff ff ff ff     ................
    3858:	ff ff ff ff ff ff ff ff ff ff ff ff ff ff ff ff     ................
    3868:	ff ff ff ff ff ff ff ff ff ff ff ff ff ff ff ff     ................
    3878:	ff ff ff ff ff ff ff ff ff ff ff ff ff ff ff ff     ................
    3888:	ff ff ff ff ff ff ff ff ff ff ff ff ff ff ff ff     ................
    3898:	ff ff ff ff ff ff ff ff ff ff ff ff ff ff ff ff     ................
    38a8:	ff ff ff ff ff ff ff ff f8 00 f8 00 f8 00 f8 00     ................
    38b8:	f8 00 f8 00 ff ff ff ff ff ff ff ff ff ff ff ff     ................
    38c8:	ff ff ff ff ff ff ff ff ff ff ff ff f8 00 f8 00     ................
    38d8:	f8 00 f8 00 f8 00 f8 00 ff ff ff ff ff ff ff ff     ................
    38e8:	ff ff ff ff ff ff ff ff ff ff ff ff ff ff ff ff     ................
    38f8:	ff ff ff ff ff ff ff ff ff ff ff ff ff ff ff ff     ................
    3908:	ff ff ff ff ff ff ff ff ff ff ff ff ff ff ff ff     ................
    3918:	ff ff ff ff ff ff ff ff ff ff ff ff ff ff ff ff     ................
    3928:	ff ff ff ff ff ff ff ff ff ff ff ff ff ff ff ff     ................
    3938:	ff ff ff ff ff ff ff ff ff ff ff ff ff ff ff ff     ................
    3948:	ff ff ff ff ff ff ff ff ff ff ff ff ff ff ff ff     ................
    3958:	ff ff ff ff ff ff ff ff ff ff ff ff ff ff ff ff     ................
    3968:	ff ff ff ff ff ff fb af f8 00 f8 00 f8 00 f8 00     ................
    3978:	f9 46 ff ff ff ff ff ff ff ff ff ff ff ff ff ff     .F..............
    3988:	ff ff ff ff ff ff ff ff ff ff ff ff ff ff ff ff     ................
    3998:	f8 00 f8 00 f8 00 f8 00 f8 00 ff ff ff ff ff ff     ................
    39a8:	ff ff ff ff ff ff ff ff ff ff ff ff ff ff ff ff     ................
    39b8:	ff ff ff ff ff ff ff ff ff ff ff ff ff ff ff ff     ................
    39c8:	ff ff ff ff ff ff ff ff ff ff ff ff ff ff ff ff     ................
    39d8:	ff ff ff ff ff ff ff ff ff ff ff ff ff ff ff ff     ................
    39e8:	ff ff ff ff ff ff ff ff ff ff ff ff ff ff ff ff     ................
    39f8:	ff ff ff ff ff ff ff ff ff ff ff ff ff ff ff ff     ................
    3a08:	ff ff ff ff ff ff ff ff ff ff ff ff ff ff ff ff     ................
    3a18:	ff ff ff ff ff ff ff ff ff ff ff ff ff ff ff ff     ................
    3a28:	ff ff ff ff ff ff f8 00 f8 00 f8 00 f8 00 fd f9     ................
    3a38:	ff ff ff ff ff ff ff ff ff ff ff ff ff ff ff ff     ................
    3a48:	ff ff ff ff ff ff ff ff ff ff ff ff ff ff ff ff     ................
    3a58:	ff ff f8 00 f8 00 f8 00 f8 00 fc d1 ff ff ff ff     ................
    3a68:	ff ff ff ff ff ff ff ff ff ff ff ff ff ff ff ff     ................
    3a78:	ff ff ff ff ff ff ff ff ff ff ff ff ff ff ff ff     ................
    3a88:	ff ff ff ff ff ff ff ff ff ff ff ff ff ff ff ff     ................
    3a98:	ff ff ff ff ff ff ff ff ff ff ff ff ff ff ff ff     ................
    3aa8:	ff ff ff ff ff ff ff ff ff ff ff ff ff ff ff ff     ................
    3ab8:	ff ff ff ff ff ff ff ff ff ff ff ff ff ff ff ff     ................
    3ac8:	ff ff ff ff ff ff ff ff ff ff ff ff ff ff ff ff     ................
    3ad8:	ff ff ff ff ff ff ff ff ff ff ff ff ff ff ff ff     ................
    3ae8:	ff ff ff ff f8 00 f8 00 f8 00 f8 00 f9 c5 ff ff     ................
    3af8:	ff ff ff ff ff ff ff ff ff ff ff ff ff ff ff ff     ................
    3b08:	ff 9b ff ff ff ff ff ff ff ff ff ff ff ff ff ff     ................
    3b18:	ff ff ff ff f8 00 f8 00 f8 00 00 00 00 00 00 00     ................
    3b28:	00 00 ff ff ff ff ff ff ff ff ff ff ff ff ff ff     ................
    3b38:	ff ff ff ff ff ff ff ff ff ff ff ff ff ff ff ff     ................
    3b48:	ff ff 00 00 00 00 00 00 18 c3 ff ff ff ff ff ff     ................
    3b58:	ff ff ff ff ff ff ff ff ff ff ff ff ff ff ff ff     ................
    3b68:	ff ff ff ff ff ff ff ff ff ff ff ff ff ff ff ff     ................
    3b78:	ff ff ff ff ff ff ff ff ff ff ff ff ff ff ff ff     ................
    3b88:	ff ff ff ff ff ff ff ff ff ff ff ff ff ff ff ff     ................
    3b98:	ff ff ff ff ff ff ff ff ff ff ff ff ff ff ff ff     ................
    3ba8:	ff ff ff ff f8 00 f8 00 f8 00 f8 00 ff ff ff ff     ................
    3bb8:	ff ff ff ff ff ff ff ff ff ff f8 00 f8 00 f8 00     ................
    3bc8:	f8 00 f8 00 f9 a8 ff ff ff ff ff ff ff ff ff ff     ................
    3bd8:	ff ff ff ff fa 08 f8 00 f8 00 00 00 00 00 00 00     ................
    3be8:	00 00 ff ff ff ff ff ff ff ff ff ff ff ff ff ff     ................
    3bf8:	ff ff ff ff ff ff ff ff ff ff ff ff ff ff ff ff     ................
    3c08:	ff ff 00 00 00 00 00 00 20 e3 ff ff ff ff ff ff     ........ .......
    3c18:	ff ff ff ff ff ff ff ff ff ff ff ff ff ff ff ff     ................
    3c28:	00 00 00 00 00 00 8c 10 ff ff ff ff ff ff ff ff     ................
    3c38:	ff ff ff ff ff ff ff ff ff ff ff ff ff ff ff ff     ................
    3c48:	ff ff ff ff ff ff ff ff ff ff ff ff ff ff ff ff     ................
    3c58:	ff ff ff ff ff ff ff ff ff ff ff ff ff ff ff ff     ................
    3c68:	ff ff f8 00 f8 00 f8 00 f8 00 ff ff ff ff ff ff     ................
    3c78:	ff ff ff ff ff ff ff de f8 00 f8 00 f8 00 f8 00     ................
    3c88:	f8 00 f8 00 f8 00 ff ff ff ff ff ff ff ff ff ff     ................
    3c98:	ff ff ff ff ff ff f8 00 f8 00 00 00 00 00 00 00     ................
    3ca8:	00 00 ff ff ff ff ff ff ff ff ff ff ff ff ff ff     ................
    3cb8:	ff ff ff ff ff ff ff ff ff ff ff ff ff ff ff ff     ................
    3cc8:	ff ff 00 00 00 00 00 00 18 c3 ff ff ff ff ff ff     ................
    3cd8:	ff ff ff ff ff ff ff ff ff ff ff ff ff ff ff ff     ................
    3ce8:	00 00 00 00 00 00 84 10 ff ff ff ff ff ff ff ff     ................
    3cf8:	ff ff ff ff ff ff ff ff ff ff ff ff ff ff ff ff     ................
    3d08:	ff ff ff ff ff ff ff ff ff ff ff ff ff ff ff ff     ................
    3d18:	ff ff ff ff ff ff ff ff ff ff ff ff ff ff ff ff     ................
    3d28:	ff ff f8 00 f8 00 f8 00 f8 00 ff ff ff ff ff ff     ................
    3d38:	ff ff ff ff ff ff f8 00 f8 00 f8 00 f8 00 f8 00     ................
    3d48:	f8 00 f8 00 f8 00 f8 00 ff ff ff ff ff ff ff ff     ................
    3d58:	ff ff ff ff ff ff fa cb f8 00 00 00 00 00 00 00     ................
    3d68:	00 00 ff ff ff ff ff ff ff ff ff ff ff ff ff ff     ................
    3d78:	ff ff ff ff ff ff ff ff ff ff ff ff ff ff ff ff     ................
    3d88:	ff ff 00 00 00 00 00 00 18 c3 ff ff ff ff ff ff     ................
    3d98:	ff ff ff ff ff ff ff ff ff ff ff ff ff ff ff ff     ................
    3da8:	00 00 00 00 00 00 83 f0 ff ff ff ff ff ff ff ff     ................
    3db8:	ff ff ff ff ff ff ff ff ff ff ff ff ff ff ff ff     ................
    3dc8:	ff ff ff ff ff ff ff ff ff ff ff ff ff ff ff ff     ................
    3dd8:	ff ff ff ff ff ff ff ff ff ff ff ff ff ff ff ff     ................
    3de8:	ff ff f8 00 f8 00 f8 00 fc 91 ff ff ff ff ff ff     ................
    3df8:	ff ff ff ff ff ff f8 00 f8 00 f8 00 f8 00 f8 00     ................
    3e08:	f8 00 fa 28 ff ff ff ff ff ff ff ff ff ff ff ff     ...(............
    3e18:	ff ff ff ff ff ff ff ff f8 00 00 00 00 00 00 00     ................
    3e28:	00 00 ff ff ff ff ff ff ff ff ff ff 5a 8a 00 00     ............Z...
	...
    3e40:	e6 fb ff ff ff ff ff ff ff ff 00 00 00 00 00 00     ................
    3e50:	18 c3 ff ff ff ff ff ff ff ff 31 65 31 65 31 65     ..........1e1e1e
    3e60:	29 45 ff ff 29 45 21 04 00 00 00 00 00 00 00 00     )E..)E!.........
    3e70:	31 65 31 65 31 45 ff ff ff ff ff ff ff ff ce 59     1e1e1E.........Y
	...
    3e88:	00 00 5a 8a ff ff ff ff ff ff ff ff ff ff 31 65     ..Z...........1e
    3e98:	31 65 31 45 9c b3 ff ff ff ff 5a cb 18 82 ff ff     1e1E......Z.....
    3ea8:	fc 50 f8 00 f8 00 f8 00 ff ff ff ff ff ff ff ff     .P..............
    3eb8:	ff ff ff ff ff ff f8 00 f8 00 f8 20 ff df ff ff     ........... ....
    3ec8:	ff ff ff ff ff ff ff ff ff ff ff ff ff ff ff ff     ................
    3ed8:	ff ff ff ff ff ff ff ff f8 00 00 00 00 00 00 00     ................
    3ee8:	00 00 ff ff ff ff ff ff b5 96 00 00 00 00 00 00     ................
	...
    3f04:	ff ff ff ff ff ff 00 00 00 00 00 00 18 c3 ff ff     ................
    3f14:	ff ff ff ff 00 00 00 00 00 00 00 00 ff ff ff ff     ................
	...
    3f34:	00 00 ff ff ff ff ff ff 00 00 00 00 00 00 00 00     ................
	...
    3f4c:	00 00 d6 9a ff ff ff ff ff ff 00 00 00 00 00 00     ................
    3f5c:	52 69 18 c3 00 00 00 00 00 00 ff ff f8 00 f8 00     Ri..............
    3f6c:	f8 00 f8 00 ff ff ff ff ff ff ff ff ff ff ff ff     ................
    3f7c:	ff ff ff ff ff ff ff ff ff ff ff ff ff ff ff ff     ................
    3f8c:	ff ff ff ff ff ff ff ff ff ff ff ff ff ff ff ff     ................
    3f9c:	fc 71 f8 00 f8 00 00 00 00 00 00 00 00 00 ff ff     .q..............
    3fac:	ff ff ef 7d 00 00 00 00 00 00 00 00 ff ff ff ff     ...}............
	...
    3fc4:	bd d7 ff ff ff ff 00 00 00 00 00 00 18 c3 ff ff     ................
    3fd4:	ff ff 00 00 00 00 00 00 00 00 ef 5d ff ff ff ff     ...........]....
	...
    3ff4:	00 00 ff ff ff ff 00 00 00 00 00 00 00 00 00 00     ................
    4004:	29 45 00 00 00 00 00 00 00 00 00 00 ff ff ff ff     )E..............
    4014:	ff ff 00 00 00 00 00 00 00 00 00 00 00 00 00 00     ................
    4024:	00 00 ff ff f8 00 f8 00 f8 00 f8 00 ff ff ff ff     ................
    4034:	ff ff ff ff ff ff ff ff ff ff ff ff ff ff ff ff     ................
    4044:	ff ff ff ff ff ff ff ff ff ff ff ff ff ff ff ff     ................
    4054:	ff 9d f8 00 f8 00 f8 00 f8 00 f8 00 f8 00 00 00     ................
    4064:	00 00 00 00 00 00 ff ff ff ff 00 00 00 00 00 00     ................
    4074:	00 00 ff ff ff ff ff ff ff ff 00 00 00 00 00 00     ................
    4084:	00 00 ff ff ff ff 00 00 00 00 00 00 18 c3 ff ff     ................
	...
    409c:	6b 4d ff ff ff ff ff ff ff ff ff ff 00 00 00 00     kM..............
    40ac:	00 00 84 10 ff ff ff ff ff ff ff ff ff ff 00 00     ................
    40bc:	00 00 00 00 00 00 ff ff ff ff ff ff ff ff 00 00     ................
    40cc:	00 00 00 00 00 00 ff ff ff ff 00 00 00 00 00 00     ................
	...
    40e4:	00 00 ff ff f8 00 f8 00 f8 00 f8 00 ff ff ff ff     ................
    40f4:	ff ff ff ff ff ff ff ff ff ff ff ff ff ff ff ff     ................
    4104:	ff ff ff ff ff ff ff ff ff ff f8 00 f8 00 f8 00     ................
    4114:	f8 00 f8 00 f8 00 f8 00 f8 00 f8 00 f8 00 00 00     ................
    4124:	00 00 00 00 00 00 ff ff ff ff 00 00 00 00 00 00     ................
    4134:	f7 9e ff ff ff ff ff ff ff ff 20 c3 00 00 00 00     .......... .....
    4144:	00 00 ff ff ff ff 00 00 00 00 00 00 20 c3 73 6d     ............ .sm
	...
    415c:	ff ff ff ff ff ff ff ff ff ff ff ff 00 00 00 00     ................
    416c:	00 00 84 10 ff ff ff ff ff ff ff ff 00 00 00 00     ................
    417c:	00 00 00 00 ff ff ff ff ff ff ff ff ff ff 00 00     ................
    418c:	00 00 00 00 00 00 ff ff ff ff 00 00 00 00 00 00     ................
    419c:	4a 69 ff ff ff ff ff ff ff ff ff ff f8 00 f8 00     Ji..............
    41ac:	f8 00 f8 00 ff ff ff ff ff ff ff ff ff ff ff ff     ................
    41bc:	ff ff ff ff ff ff ff ff ff ff f9 a6 f8 00 f8 00     ................
    41cc:	f8 00 f8 00 f8 00 f8 00 f8 00 f8 00 f8 00 f8 00     ................
    41dc:	f8 63 ff ff f8 00 00 00 00 00 00 00 00 00 ff ff     .c..............
    41ec:	f7 7d 00 00 00 00 00 00 00 00 00 00 00 00 00 00     .}..............
	...
    4204:	00 00 ff ff ff ff 00 00 00 00 00 00 00 00 00 00     ................
    4214:	00 00 00 00 00 00 ff ff ff ff ff ff ff ff ff ff     ................
    4224:	ff ff ff ff 00 00 00 00 00 00 84 10 ff ff ff ff     ................
    4234:	ff ff ff ff 00 00 00 00 00 00 00 00 ff ff ff ff     ................
    4244:	ff ff ff ff ff ff 00 00 00 00 00 00 00 00 ff ff     ................
    4254:	ff ff 00 00 00 00 00 00 4a 49 ff ff ff ff ff ff     ........JI......
    4264:	ff ff ff ff fe 9a f8 00 f8 00 f8 00 ff ff ff ff     ................
    4274:	ff ff ff ff ff ff ff ff ff ff ff ff f8 00 f8 00     ................
    4284:	f8 00 f8 00 f8 00 f8 00 f8 00 f8 00 f8 00 f8 00     ................
    4294:	f8 00 f8 00 f8 00 f8 c2 ff ff ff ff f8 00 00 00     ................
    42a4:	00 00 00 00 00 00 ff ff d6 7a 00 00 00 00 00 00     .........z......
	...
    42c4:	00 00 ff ff ff ff 00 00 00 00 00 00 00 00 00 00     ................
	...
    42dc:	ff ff ff ff ff ff ff ff ff ff ff ff 00 00 00 00     ................
    42ec:	00 00 84 10 ff ff ff ff ff ff ff ff 00 00 00 00     ................
    42fc:	00 00 00 00 ff ff ff ff ff ff ff ff ff ff 00 00     ................
    430c:	00 00 00 00 00 00 ff ff ff ff 00 00 00 00 00 00     ................
    431c:	4a 49 ff ff ff ff ff ff ff ff ff ff ff ff f8 00     JI..............
    432c:	f8 00 f8 00 f9 e7 ff ff ff ff ff ff ff ff ff ff     ................
    433c:	ff ff ff ff fe da f8 00 f8 00 f8 00 f8 00 f8 00     ................
    434c:	f8 00 f8 00 f8 00 f8 00 f8 00 f8 00 fd 14 ff ff     ................
    435c:	ff ff ff ff f8 00 00 00 00 00 00 00 00 00 ff ff     ................
    436c:	ff ff 00 00 00 00 00 00 b5 96 ff ff ff ff ff ff     ................
    437c:	ff ff ff ff ff ff ff ff ff ff ff ff ff ff 00 00     ................
    438c:	00 00 00 00 00 00 ff ff 00 00 00 00 00 00 00 00     ................
    439c:	ef 5d ff ff ff ff ff ff ff ff ff ff 00 00 00 00     .]..............
    43ac:	00 00 7b ef ff ff ff ff ff ff ff ff 00 00 00 00     ..{.............
    43bc:	00 00 00 00 ff ff ff ff ff ff ff ff ff ff 00 00     ................
    43cc:	00 00 00 00 00 00 ff ff ff ff 00 00 00 00 00 00     ................
    43dc:	4a 49 ff ff ff ff ff ff ff ff ff ff ff ff f8 00     JI..............
    43ec:	f8 00 f8 00 f8 00 ff ff ff ff ff ff ff ff ff ff     ................
    43fc:	ff ff ff ff ff ff f8 e4 f8 00 f8 00 f8 00 f8 00     ................
    440c:	f8 00 f8 00 f8 00 f8 00 f8 00 ff ff ff ff ff ff     ................
    441c:	ff ff f8 00 f8 00 00 00 00 00 00 00 00 00 ff ff     ................
    442c:	ff ff 00 00 00 00 00 00 00 00 ff ff ff ff ff ff     ................
    443c:	ff ff ff ff ff ff ff ff 6b 0c ff ff ff ff 00 00     ........k.......
    444c:	00 00 00 00 18 c3 ff ff ff ff 00 00 00 00 00 00     ................
    445c:	00 00 ff ff ff ff ff ff ff ff ff ff 00 00 00 00     ................
    446c:	00 00 5a aa ff ff ff ff ff ff ff ff ad 55 00 00     ..Z..........U..
    447c:	00 00 00 00 83 cf ff ff ff ff ff ff ff ff 00 00     ................
    448c:	00 00 00 00 00 00 ff ff ff ff 00 00 00 00 00 00     ................
    449c:	4a 49 ff ff ff ff ff ff ff ff ff ff ff ff f8 c4     JI..............
    44ac:	f8 00 f8 00 f8 00 fd 96 ff ff ff ff ff ff ff ff     ................
    44bc:	ff ff ff ff ff ff ff ff ff ff f8 00 f8 00 f8 00     ................
    44cc:	f8 00 f8 00 f9 23 ff ff ff ff ff ff ff ff ff ff     .....#..........
    44dc:	ff ff f8 00 f8 00 00 00 00 00 00 00 00 00 ff ff     ................
    44ec:	ff ff 21 04 00 00 00 00 00 00 00 00 83 ef ff ff     ..!.............
    44fc:	ff ff ff df 31 65 00 00 00 00 ff ff ff ff 00 00     ....1e..........
    450c:	00 00 00 00 18 c3 ff ff ff ff 18 a2 00 00 00 00     ................
    451c:	00 00 00 00 ff ff ff ff ff ff ff ff 00 00 00 00     ................
    452c:	00 00 00 00 f7 9e ff ff 73 6d ff ff ff ff 00 00     ........sm......
    453c:	00 00 00 00 00 00 9c b3 ff ff ff ff 00 00 00 00     ................
    454c:	00 00 00 00 a4 f3 ff ff ff ff 00 00 00 00 00 00     ................
    455c:	4a 49 ff ff ff ff ff ff ff ff ff ff ff ff ff ff     JI..............
    456c:	f8 00 f8 00 f8 00 f8 00 ff ff ff ff ff ff ff ff     ................
    457c:	ff ff ff ff ff ff ff ff ff ff ff ff ff ff ff ff     ................
    458c:	ff ff ff ff ff ff ff ff ff ff ff ff ff ff ff ff     ................
    459c:	f8 00 f8 00 f8 00 00 00 00 00 00 00 00 00 ff ff     ................
    45ac:	ff ff ff ff 00 00 00 00 00 00 00 00 00 00 00 00     ................
	...
    45c4:	00 00 ff ff ff ff 00 00 00 00 00 00 18 c3 ff ff     ................
    45d4:	ff ff ff ff 00 00 00 00 00 00 00 00 c6 18 ff ff     ................
    45e4:	ff ff ff ff 00 00 00 00 00 00 00 00 00 00 00 00     ................
    45f4:	00 00 ff ff ff ff ff ff 00 00 00 00 00 00 00 00     ................
	...
    4610:	ff ff ff ff ff ff 00 00 00 00 00 00 4a 49 ff ff     ............JI..
    4620:	ff ff ff ff ff ff ff ff ff ff ff ff f8 82 f8 00     ................
    4630:	f8 00 f8 00 f8 00 ff ff ff ff ff ff ff ff ff ff     ................
    4640:	ff ff ff ff ff ff ff ff ff ff ff ff ff ff ff ff     ................
    4650:	ff ff ff ff ff ff ff ff ff ff fa 89 f8 00 f8 00     ................
    4660:	f8 00 00 00 00 00 00 00 00 00 ff ff ff ff ff ff     ................
    4670:	ff ff ad 55 00 00 00 00 00 00 00 00 00 00 00 00     ...U............
    4680:	00 00 00 00 52 49 ff ff ff ff 00 00 00 00 00 00     ....RI..........
    4690:	18 c3 ff ff ff ff ff ff ff ff 00 00 00 00 00 00     ................
    46a0:	00 00 ff ff ff ff ff ff ff ff 00 00 00 00 00 00     ................
    46b0:	00 00 00 00 00 00 ff ff ff ff ff ff ff ff 00 00     ................
	...
    46cc:	6b 0c ff ff ff ff ff ff ff ff 00 00 00 00 00 00     k...............
    46dc:	42 08 ff ff ff ff ff ff ff ff ff ff ff ff ff ff     B...............
    46ec:	ff ff f8 00 f8 00 f8 00 f8 00 f8 00 ff ff ff ff     ................
    46fc:	ff ff ff ff ff ff ff ff ff ff ff ff ff ff ff ff     ................
    470c:	ff ff ff ff ff ff ff ff ff ff ff ff fb ce f8 00     ................
    471c:	f8 00 f8 00 f8 00 ff ff ff ff ff ff ff ff ff ff     ................
    472c:	ff ff ff ff ff ff ff ff ff ff ff ff ff ff ff ff     ................
    473c:	ff ff ff ff ff ff ff ff ff ff ff ff ff ff ff ff     ................
    474c:	ff ff ff ff ff ff ff ff ff ff ff ff ff ff ff ff     ................
    475c:	ff ff ff ff ff ff ff ff ff ff ff ff ff ff ff ff     ................
    476c:	ff ff ff ff ff ff ff ff ff ff ff ff ff ff ff ff     ................
    477c:	ff ff ff ff ff ff ff ff f7 7e ff ff ff ff ff ff     .........~......
    478c:	ff ff ff ff ff ff ff ff ff ff ff ff ff ff ff ff     ................
    479c:	ff ff ff ff ff ff ff ff ff ff ff ff ff ff ff ff     ................
    47ac:	ff ff ff ff f8 00 f8 00 f8 00 f8 00 f8 00 ff ff     ................
    47bc:	ff ff ff ff ff ff ff ff ff ff ff ff ff ff ff ff     ................
    47cc:	ff ff ff ff ff ff ff ff ff ff f8 00 f8 00 f8 00     ................
    47dc:	f8 00 f8 00 fb 0c ff ff ff ff ff ff ff ff ff ff     ................
    47ec:	ff ff ff ff ff ff ff ff ff ff ff ff ff ff ff ff     ................
    47fc:	ff ff ff ff ff ff ff ff ff ff ff ff ff ff ff ff     ................
    480c:	ff ff ff ff ff ff ff ff ff ff ff ff ff ff ff ff     ................
    481c:	ff ff ff ff ff ff ff ff ff ff ff ff ff ff ff ff     ................
    482c:	ff ff ff ff ff ff ff ff ff ff ff ff ff ff ff ff     ................
    483c:	ff ff ff ff ff ff ff ff ff ff ff ff ff ff ff ff     ................
    484c:	ff ff ff ff ff ff ff ff ff ff ff ff ff ff ff ff     ................
    485c:	ff ff ff ff ff ff ff ff ff ff ff ff ff ff ff ff     ................
    486c:	ff ff ff ff fe ba f8 00 f8 00 f8 00 f8 00 f8 00     ................
    487c:	f8 e4 ff ff ff ff ff ff ff ff ff ff ff ff ff ff     ................
    488c:	ff ff ff ff ff ff fd 94 f8 00 f8 00 f8 00 f8 00     ................
    489c:	f8 00 f8 61 ff ff ff ff ff ff ff ff ff ff ff ff     ...a............
    48ac:	ff ff ff ff ff ff ff ff ff ff ff ff ff ff ff ff     ................
    48bc:	ff ff ff ff ff ff ff ff ff ff ff ff ff ff ff ff     ................
    48cc:	ff ff ff ff ff ff ff ff ff ff ff ff ff ff ff ff     ................
    48dc:	ff ff ff ff ff ff ff ff ff ff ff ff ff ff ff ff     ................
    48ec:	ff ff ff ff ff ff ff ff ff ff ff ff ff ff ff ff     ................
    48fc:	ff ff ff ff ff ff ff ff ff ff ff ff ff ff ff ff     ................
    490c:	ff ff ff ff ff ff ff ff ff ff ff ff ff ff ff ff     ................
    491c:	ff ff ff ff ff ff ff ff ff ff ff ff ff ff ff ff     ................
    492c:	ff ff ff ff ff ff ff 9e f8 00 f8 00 f8 00 f8 00     ................
    493c:	f8 00 f8 00 f8 00 fb 2c ff 7e ff ff ff ff ff ff     .......,.~......
    494c:	fd 13 f8 00 f8 00 f8 00 f8 00 f8 00 f8 00 f8 00     ................
    495c:	f9 c6 ff ff ff ff ff ff ff ff ff ff ff ff ff ff     ................
    496c:	ff ff ff ff ff ff ff ff ff ff ff ff ff ff ff ff     ................
    497c:	ff ff ff ff ff ff ff ff ff ff ff ff ff ff ff ff     ................
    498c:	ff ff ff ff ff ff ff ff ff ff ff ff ff ff ff ff     ................
    499c:	ff ff ff ff ff ff ff ff ff ff ff ff ff ff ff ff     ................
    49ac:	ff ff ff ff ff ff ff ff ff ff ff ff ff ff ff ff     ................
    49bc:	ff ff ff ff ff ff ff ff ff ff ff ff ff ff ff ff     ................
    49cc:	ff ff ff ff ff ff ff ff ff ff ff ff ff ff ff ff     ................
    49dc:	ff ff ff ff ff ff ff ff ff ff ff ff ff ff ff ff     ................
    49ec:	ff ff ff ff ff ff ff ff ff ff f8 00 f8 00 f8 00     ................
    49fc:	f8 00 f8 00 f8 00 f8 00 f8 00 f8 00 f8 00 f8 00     ................
    4a0c:	f8 00 f8 00 f8 00 f8 00 f8 00 f8 00 f8 00 ff 5b     ...............[
    4a1c:	ff ff ff ff ff ff ff ff ff ff ff ff ff ff ff ff     ................
    4a2c:	ff ff ff ff ff ff ff ff ff ff ff ff ff ff ff ff     ................
    4a3c:	ff ff ff ff ff ff ff ff ff ff ff ff ff ff ff ff     ................
    4a4c:	ff ff ff ff ff ff ff ff ff ff ff ff ff ff ff ff     ................
    4a5c:	ff ff ff ff ff ff ff ff ff ff ff ff ff ff ff ff     ................
    4a6c:	ff ff ff ff ff ff ff ff ff ff ff ff ff ff ff ff     ................
    4a7c:	ff ff ff ff ff ff ff ff ff ff ff ff ff ff ff ff     ................
    4a8c:	ff ff ff ff ff ff ff ff ff ff ff ff ff ff ff ff     ................
    4a9c:	ff ff ff ff ff ff ff ff ff ff ff ff ff ff ff ff     ................
    4aac:	ff ff ff ff ff ff ff ff ff ff ff ff fe 78 f8 00     .............x..
    4abc:	f8 00 f8 00 f8 00 f8 00 f8 00 f8 00 f8 00 f8 00     ................
    4acc:	f8 00 f8 00 f8 00 f8 00 f8 00 f9 66 ff ff ff ff     ...........f....
    4adc:	ff ff ff ff ff ff ff ff ff ff ff ff ff ff ff ff     ................
    4aec:	ff ff ff ff ff ff ff ff ff ff ff ff ff ff ff ff     ................
    4afc:	ff ff ff ff ff ff ff ff ff ff ff ff ff ff ff ff     ................
    4b0c:	ff ff ff ff ff ff ff ff ff ff ff ff ff ff ff ff     ................
    4b1c:	ff ff ff ff ff ff ff ff ff ff ff ff ff ff ff ff     ................
    4b2c:	ff ff ff ff ff ff ff ff ff ff ff ff ff ff ff ff     ................
    4b3c:	ff ff ff ff ff ff ff ff ff ff ff ff ff ff ff ff     ................
    4b4c:	ff ff ff ff ff ff ff ff ff ff ff ff ff ff ff ff     ................
    4b5c:	ff ff ff ff ff ff ff ff ff ff ff ff ff ff ff ff     ................
    4b6c:	ff ff ff ff ff ff ff ff ff ff ff ff ff ff ff ff     ................
    4b7c:	ff ff f8 00 f8 00 f8 00 f8 00 f8 00 f8 00 f8 00     ................
    4b8c:	f8 00 f8 00 f8 00 fe 79 ff ff ff ff ff ff ff ff     .......y........
    4b9c:	ff ff ff ff ff ff ff ff ff ff ff ff ff ff ff ff     ................
    4bac:	ff ff ff ff ff ff ff ff ff ff ff ff ff ff ff ff     ................
    4bbc:	ff ff ff ff ff ff ff ff ff ff ff ff ff ff ff ff     ................
    4bcc:	ff ff ff ff ff ff ff ff ff ff ff ff ff ff ff ff     ................
    4bdc:	ff ff ff ff ff ff ff ff ff ff ff ff ff ff ff ff     ................
    4bec:	ff ff ff ff ff ff ff ff ff ff ff ff ff ff ff ff     ................
    4bfc:	ff ff ff ff ff ff ff ff ff ff ff ff ff ff ff ff     ................
    4c0c:	ff ff ff ff ff ff ff ff ff ff ff ff ff ff ff ff     ................
    4c1c:	ff ff ff ff ff ff ff ff ff ff ff ff ff ff ff ff     ................
    4c2c:	ff ff ff ff ff ff ff ff ff ff ff ff ff ff ff ff     ................
    4c3c:	ff ff ff ff ff ff ff ff ff ff ff ff ff ff ff ff     ................
    4c4c:	ff ff ff ff ff ff ff ff ff ff ff ff ff ff ff ff     ................
    4c5c:	ff ff ff ff ff ff ff ff ff ff ff ff ff ff ff ff     ................
    4c6c:	ff ff ff ff ff ff ff ff ff ff ff ff ff ff ff ff     ................
    4c7c:	ff ff ff ff ff ff ff ff ff ff ff ff ff ff ff ff     ................
    4c8c:	ff ff ff ff ff ff ff ff ff ff ff ff ff ff ff ff     ................
    4c9c:	ff ff ff ff ff ff ff ff ff ff ff ff ff ff ff ff     ................
    4cac:	ff ff ff ff ff ff ff ff ff ff ff ff ff ff ff ff     ................
    4cbc:	ff ff ff ff ff ff ff ff ff ff ff ff ff ff ff ff     ................
    4ccc:	ff ff ff ff ff ff ff ff ff ff ff ff ff ff ff ff     ................
    4cdc:	ff ff ff ff ff ff ff ff ff ff ff ff ff ff ff ff     ................
    4cec:	ff ff ff ff ff ff ff ff ff ff ff ff ff ff ff ff     ................
    4cfc:	ff ff ff ff ff ff ff ff ff ff ff ff ff ff ff ff     ................
    4d0c:	ff ff ff ff ff ff ff ff ff ff ff ff ff ff ff ff     ................
    4d1c:	ff ff ff ff ff ff ff ff ff ff ff ff ff ff ff ff     ................
    4d2c:	ff ff ff ff ff ff ff ff ff ff ff ff ff ff ff ff     ................
    4d3c:	ff ff ff ff ff ff ff ff ff ff ff ff ff ff ff ff     ................
    4d4c:	ff ff ff ff ff ff ff ff ff ff ff ff ff ff ff ff     ................
    4d5c:	ff ff ff ff ff ff ff ff ff ff ff ff ff ff ff ff     ................
    4d6c:	ff ff ff ff ff ff ff ff ff ff ff ff ff ff ff ff     ................
    4d7c:	ff ff ff ff ff ff ff ff ff ff ff ff ff ff ff ff     ................
    4d8c:	ff ff ff ff ff ff ff ff ff ff ff ff ff ff ff ff     ................
    4d9c:	ff ff ff ff ff ff ff ff ff ff ff ff ff ff ff ff     ................
    4dac:	ff ff ff ff ff ff ff ff ff ff ff ff ff ff ff ff     ................
    4dbc:	ff ff ff ff ff ff ff ff ff ff ff ff ff ff ff ff     ................
    4dcc:	ff ff ff ff ff ff ff ff ff ff ff ff ff ff ff ff     ................
    4ddc:	ff ff ff ff ff ff ff ff ff ff ff ff ff ff ff ff     ................
    4dec:	ff ff ff ff ff ff ff ff ff ff ff ff ff ff ff ff     ................
    4dfc:	ff ff ff ff ff ff ff ff ff ff ff ff ff ff ff ff     ................
    4e0c:	ff ff ff ff ff ff ff ff ff ff ff ff ff ff ff ff     ................
    4e1c:	ff ff ff ff ff ff ff ff ff ff ff ff ff ff ff ff     ................
    4e2c:	ff ff ff ff ff ff ff ff ff ff ff ff ff ff ff ff     ................
    4e3c:	ff ff ff ff ff ff ff ff ff ff ff ff ff ff ff ff     ................
    4e4c:	ff ff ff ff ff ff ff ff ff ff ff ff ff ff ff ff     ................
    4e5c:	ff ff ff ff ff ff ff ff ff ff ff ff ff ff ff ff     ................
    4e6c:	ff ff ff ff ff ff ff ff ff ff ff ff ff ff ff ff     ................
    4e7c:	ff ff ff ff ff ff ff ff ff ff ff ff ff ff ff ff     ................
    4e8c:	ff ff ff ff ff ff ff ff ff ff ff ff ff ff ff ff     ................
    4e9c:	ff ff ff ff ff ff ff ff ff ff ff ff ff ff ff ff     ................
    4eac:	ff ff ff ff ff ff ff ff ff ff ff ff ff ff ff ff     ................
    4ebc:	ff ff ff ff ff ff ff ff ff ff ff ff ff ff ff ff     ................
    4ecc:	ff ff ff ff ff ff ff ff ff ff ff ff ff ff ff ff     ................
    4edc:	ff ff ff ff ff ff ff ff ff ff ff ff ff ff ff ff     ................
    4eec:	ff ff ff ff ff ff ff ff ff ff ff ff ff ff ff ff     ................
    4efc:	ff ff ff ff ff ff ff ff ff ff ff ff ff ff ff ff     ................
    4f0c:	ff ff ff ff ff ff ff ff ff ff ff ff ff ff ff ff     ................
    4f1c:	ff ff ff ff ff ff ff ff ff ff ff ff ff ff ff ff     ................
    4f2c:	ff ff ff ff ff ff ff ff ff ff ff ff ff ff ff ff     ................
    4f3c:	ff ff ff ff ff ff ff ff ff ff ff ff ff ff ff ff     ................
    4f4c:	ff ff ff ff ff ff ff ff ff ff ff ff ff ff ff ff     ................
    4f5c:	ff ff ff ff ff ff ff ff ff ff ff ff ff ff ff ff     ................
    4f6c:	ff ff ff ff ff ff ff ff ff ff ff ff ff ff ff ff     ................
    4f7c:	ff ff ff ff ff ff ff ff ff ff ff ff ff ff ff ff     ................
    4f8c:	ff ff ff ff ff ff ff ff ff ff ff ff ff ff ff ff     ................
    4f9c:	ff ff ff ff ff ff ff ff ff ff ff ff ff ff ff ff     ................
    4fac:	ff ff ff ff ff ff ff ff ff ff ff ff ff ff ff ff     ................
    4fbc:	ff ff ff ff ff ff ff ff ff ff ff ff ff ff ff ff     ................
    4fcc:	ff ff ff ff ff ff ff ff ff ff ff ff ff ff ff ff     ................
    4fdc:	ff ff ff ff ff ff ff ff ff ff ff ff ff ff ff ff     ................
    4fec:	ff ff ff ff ff ff ff ff ff ff ff ff ff ff ff ff     ................
    4ffc:	ff ff ff ff ff ff ff ff ff ff ff ff ff ff ff ff     ................
    500c:	ff ff ff ff ff ff ff ff ff ff ff ff ff ff ff ff     ................
    501c:	ff ff ff ff ff ff ff ff ff ff ff ff ff ff ff ff     ................
    502c:	ff ff ff ff ff ff ff ff ff ff ff ff ff ff ff ff     ................
    503c:	ff ff ff ff ff ff ff ff ff ff ff ff ff ff ff ff     ................
    504c:	ff ff ff ff ff ff ff ff ff ff ff ff ff ff ff ff     ................
    505c:	ff ff ff ff ff ff ff ff ff ff ff ff ff ff ff ff     ................
    506c:	ff ff ff ff ff ff ff ff ff ff ff ff ff ff ff ff     ................
    507c:	ff ff ff ff ff ff ff ff ff ff ff ff ff ff ff ff     ................
    508c:	ff ff ff ff ff ff ff ff ff ff ff ff ff ff ff ff     ................
    509c:	ff ff ff ff ff ff ff ff ff ff ff ff ff ff ff ff     ................
    50ac:	ff ff ff ff ff ff ff ff ff ff ff ff ff ff ff ff     ................
    50bc:	ff ff ff ff ff ff ff ff ff ff ff ff ff ff ff ff     ................
    50cc:	ff ff ff ff ff ff ff ff ff ff ff ff ff ff ff ff     ................
    50dc:	ff ff ff ff ff ff ff ff ff ff ff ff ff ff ff ff     ................
    50ec:	ff ff ff ff ff ff ff ff ff ff ff ff ff ff ff ff     ................
    50fc:	ff ff ff ff ff ff ff ff ff ff ff ff ff ff ff ff     ................
    510c:	ff ff ff ff ff ff ff ff ff ff ff ff ff ff ff ff     ................
    511c:	ff ff ff ff ff ff ff ff ff ff ff ff ff ff ff ff     ................
    512c:	ff ff ff ff ff ff ff ff ff ff ff ff ff ff ff ff     ................
    513c:	ff ff ff ff ff ff ff ff ff ff ff ff ff ff ff ff     ................
    514c:	ff ff ff ff ff ff ff ff ff ff ff ff ff ff ff ff     ................
    515c:	ff ff ff ff ff ff ff ff ff ff ff ff ff ff ff ff     ................
    516c:	ff ff ff ff ff ff ff ff ff ff ff ff ff ff ff ff     ................
    517c:	ff ff ff ff ff ff ff ff ff ff ff ff ff ff ff ff     ................
    518c:	ff ff ff ff ff ff ff ff ff ff ff ff ff ff ff ff     ................
    519c:	ff ff ff ff ff ff ff ff ff ff ff ff ff ff ff ff     ................
    51ac:	ff ff ff ff ff ff ff ff ff ff ff ff ff ff ff ff     ................
    51bc:	ff ff ff ff ff ff ff ff ff ff ff ff ff ff ff ff     ................
    51cc:	ff ff ff ff ff ff ff ff ff ff ff ff ff ff ff ff     ................
    51dc:	ff ff ff ff ff ff ff ff ff ff ff ff ff ff ff ff     ................
    51ec:	ff ff ff ff ff ff ff ff ff ff ff ff ff ff ff ff     ................
    51fc:	ff ff ff ff ff ff ff ff ff ff ff ff ff ff ff ff     ................
    520c:	ff ff ff ff ff ff ff ff ff ff ff ff ff ff ff ff     ................
    521c:	ff ff ff ff ff ff ff ff ff ff ff ff ff ff ff ff     ................
    522c:	ff ff ff ff ff ff ff ff ff ff ff ff ff ff ff ff     ................
    523c:	ff ff ff ff ff ff ff ff ff ff ff ff ff ff ff ff     ................
    524c:	ff ff ff ff ff ff ff ff ff ff ff ff ff ff ff ff     ................
    525c:	ff ff ff ff ff ff ff ff ff ff ff ff ff ff ff ff     ................
    526c:	ff ff ff ff ff ff ff ff ff ff ff ff ff ff ff ff     ................
    527c:	ff ff ff ff ff ff ff ff ff ff ff ff ff ff ff ff     ................
    528c:	ff ff ff ff ff ff ff ff ff ff ff ff ff ff ff ff     ................
    529c:	ff ff ff ff ff ff ff ff ff ff ff ff ff ff ff ff     ................
    52ac:	ff ff ff ff ff ff ff ff ff ff ff ff ff ff ff ff     ................
    52bc:	ff ff ff ff ff ff ff ff ff ff ff ff ff ff ff ff     ................
    52cc:	ff ff ff ff ff ff ff ff ff ff ff ff ff ff ff ff     ................
    52dc:	ff ff ff ff ff ff ff ff ff ff ff ff                 ............

000052e8 <__ctors_end>:
    52e8:	11 24       	eor	r1, r1
    52ea:	1f be       	out	0x3f, r1	; 63
    52ec:	cf ef       	ldi	r28, 0xFF	; 255
    52ee:	d8 e0       	ldi	r29, 0x08	; 8
    52f0:	de bf       	out	0x3e, r29	; 62
    52f2:	cd bf       	out	0x3d, r28	; 61

000052f4 <__do_copy_data>:
    52f4:	11 e0       	ldi	r17, 0x01	; 1
    52f6:	a0 e0       	ldi	r26, 0x00	; 0
    52f8:	b1 e0       	ldi	r27, 0x01	; 1
    52fa:	e0 e3       	ldi	r30, 0x30	; 48
    52fc:	fb e6       	ldi	r31, 0x6B	; 107
    52fe:	02 c0       	rjmp	.+4      	; 0x5304 <__do_copy_data+0x10>
    5300:	05 90       	lpm	r0, Z+
    5302:	0d 92       	st	X+, r0
    5304:	a2 30       	cpi	r26, 0x02	; 2
    5306:	b1 07       	cpc	r27, r17
    5308:	d9 f7       	brne	.-10     	; 0x5300 <__do_copy_data+0xc>

0000530a <__do_clear_bss>:
    530a:	21 e0       	ldi	r18, 0x01	; 1
    530c:	a2 e0       	ldi	r26, 0x02	; 2
    530e:	b1 e0       	ldi	r27, 0x01	; 1
    5310:	01 c0       	rjmp	.+2      	; 0x5314 <.do_clear_bss_start>

00005312 <.do_clear_bss_loop>:
    5312:	1d 92       	st	X+, r1

00005314 <.do_clear_bss_start>:
    5314:	a7 31       	cpi	r26, 0x17	; 23
    5316:	b2 07       	cpc	r27, r18
    5318:	e1 f7       	brne	.-8      	; 0x5312 <.do_clear_bss_loop>
    531a:	0e 94 04 34 	call	0x6808	; 0x6808 <main>
    531e:	0c 94 96 35 	jmp	0x6b2c	; 0x6b2c <_exit>

00005322 <__bad_interrupt>:
    5322:	0c 94 00 00 	jmp	0	; 0x0 <__vectors>

00005326 <send_oled_data>:

//====================================================================
void send_oled_data (unsigned char c_oled_data)
{

   if(CHECK_BIT(c_oled_data,7))    // CHECK IF 7TH BIT IS 1 
    5326:	88 23       	and	r24, r24
    5328:	14 f4       	brge	.+4      	; 0x532e <send_oled_data+0x8>
   { 
	  util_BitSet(PORTB,OLED_SDA); // SET LCD DATA LINE HIGH 
    532a:	2b 9a       	sbi	0x05, 3	; 5
    532c:	01 c0       	rjmp	.+2      	; 0x5330 <send_oled_data+0xa>
   }
   else
   {  
	  util_BitClear(PORTB,OLED_SDA);  // SET LCD DATA LINE LOW
    532e:	2b 98       	cbi	0x05, 3	; 5
   }
   util_BitSet(PORTB,OLED_SCL);
    5330:	2d 9a       	sbi	0x05, 5	; 5
   util_BitClear(PORTB,OLED_SCL);   // provide clock pulse
    5332:	2d 98       	cbi	0x05, 5	; 5
   
   if(CHECK_BIT(c_oled_data,6))    // CHECK IF 6TH BIT IS 1 
    5334:	86 ff       	sbrs	r24, 6
    5336:	02 c0       	rjmp	.+4      	; 0x533c <send_oled_data+0x16>
   {
      util_BitSet(PORTB,OLED_SDA);   // SET LCD DATA LINE HIGH 
    5338:	2b 9a       	sbi	0x05, 3	; 5
    533a:	01 c0       	rjmp	.+2      	; 0x533e <send_oled_data+0x18>
   }
   else
   {
      PORTB &= ~(1 << OLED_SDA);     // SET LCD DATA LINE LOW
    533c:	2b 98       	cbi	0x05, 3	; 5
   }
   util_BitSet(PORTB,OLED_SCL);
    533e:	2d 9a       	sbi	0x05, 5	; 5
   util_BitClear(PORTB,OLED_SCL);   // provide clock pulse
    5340:	2d 98       	cbi	0x05, 5	; 5
   
   if(CHECK_BIT(c_oled_data,5))    // CHECK IF 5TH BIT IS 1 
    5342:	85 ff       	sbrs	r24, 5
    5344:	02 c0       	rjmp	.+4      	; 0x534a <send_oled_data+0x24>
   {
       util_BitSet(PORTB,OLED_SDA);   // SET LCD DATA LINE HIGH 
    5346:	2b 9a       	sbi	0x05, 3	; 5
    5348:	01 c0       	rjmp	.+2      	; 0x534c <send_oled_data+0x26>
   }
   else
   {
      util_BitClear(PORTB,OLED_SDA);     // SET LCD DATA LINE LOW
    534a:	2b 98       	cbi	0x05, 3	; 5
   }
  util_BitSet(PORTB,OLED_SCL);
    534c:	2d 9a       	sbi	0x05, 5	; 5
  util_BitClear(PORTB,OLED_SCL);
    534e:	2d 98       	cbi	0x05, 5	; 5
   
   if(CHECK_BIT(c_oled_data,4))    // CHECK IF 4TH BIT IS 1 
    5350:	84 ff       	sbrs	r24, 4
    5352:	02 c0       	rjmp	.+4      	; 0x5358 <send_oled_data+0x32>
   {
       util_BitSet(PORTB,OLED_SDA);   // SET LCD DATA LINE HIGH 
    5354:	2b 9a       	sbi	0x05, 3	; 5
    5356:	01 c0       	rjmp	.+2      	; 0x535a <send_oled_data+0x34>
   }
   else
   {
      util_BitClear(PORTB,OLED_SDA);     // SET LCD DATA LINE LOW
    5358:	2b 98       	cbi	0x05, 3	; 5
   }
  util_BitSet(PORTB,OLED_SCL);
    535a:	2d 9a       	sbi	0x05, 5	; 5
  util_BitClear(PORTB,OLED_SCL);
    535c:	2d 98       	cbi	0x05, 5	; 5
   
   if(CHECK_BIT(c_oled_data,3))    // CHECK IF 4TH BIT IS 1 
    535e:	83 ff       	sbrs	r24, 3
    5360:	02 c0       	rjmp	.+4      	; 0x5366 <send_oled_data+0x40>
   {
      util_BitSet(PORTB,OLED_SDA);   // SET LCD DATA LINE HIGH 
    5362:	2b 9a       	sbi	0x05, 3	; 5
    5364:	01 c0       	rjmp	.+2      	; 0x5368 <send_oled_data+0x42>
   }
   else
   {
      util_BitClear(PORTB,OLED_SDA);      // SET LCD DATA LINE LOW
    5366:	2b 98       	cbi	0x05, 3	; 5
   }
   util_BitSet(PORTB,OLED_SCL);
    5368:	2d 9a       	sbi	0x05, 5	; 5
   util_BitClear(PORTB,OLED_SCL);
    536a:	2d 98       	cbi	0x05, 5	; 5
   
   if(CHECK_BIT(c_oled_data,2))    // CHECK IF 4TH BIT IS 1 
    536c:	82 ff       	sbrs	r24, 2
    536e:	02 c0       	rjmp	.+4      	; 0x5374 <send_oled_data+0x4e>
   {
      util_BitSet(PORTB,OLED_SDA);   // SET LCD DATA LINE HIGH 
    5370:	2b 9a       	sbi	0x05, 3	; 5
    5372:	01 c0       	rjmp	.+2      	; 0x5376 <send_oled_data+0x50>
   }
   else
   {
      util_BitClear(PORTB,OLED_SDA);      // SET LCD DATA LINE LOW
    5374:	2b 98       	cbi	0x05, 3	; 5
   }
   util_BitSet(PORTB,OLED_SCL);
    5376:	2d 9a       	sbi	0x05, 5	; 5
   util_BitClear(PORTB,OLED_SCL);
    5378:	2d 98       	cbi	0x05, 5	; 5
   
   if(CHECK_BIT(c_oled_data,1))    // CHECK IF 4TH BIT IS 1 
    537a:	81 ff       	sbrs	r24, 1
    537c:	02 c0       	rjmp	.+4      	; 0x5382 <send_oled_data+0x5c>
   {
      util_BitSet(PORTB,OLED_SDA);   // SET LCD DATA LINE HIGH 
    537e:	2b 9a       	sbi	0x05, 3	; 5
    5380:	01 c0       	rjmp	.+2      	; 0x5384 <send_oled_data+0x5e>
   }
   else
   {
      util_BitClear(PORTB,OLED_SDA);     // SET LCD DATA LINE LOW
    5382:	2b 98       	cbi	0x05, 3	; 5
   }
  util_BitSet(PORTB,OLED_SCL);
    5384:	2d 9a       	sbi	0x05, 5	; 5
  util_BitClear(PORTB,OLED_SCL);
    5386:	2d 98       	cbi	0x05, 5	; 5
   
   if(CHECK_BIT(c_oled_data,0))    // CHECK IF 4TH BIT IS 1 
    5388:	80 ff       	sbrs	r24, 0
    538a:	02 c0       	rjmp	.+4      	; 0x5390 <send_oled_data+0x6a>
   {
      util_BitSet(PORTB,OLED_SDA);   // SET LCD DATA LINE HIGH 
    538c:	2b 9a       	sbi	0x05, 3	; 5
    538e:	01 c0       	rjmp	.+2      	; 0x5392 <send_oled_data+0x6c>
   }
   else
   {
      util_BitClear(PORTB,OLED_SDA);      // SET LCD DATA LINE LOW
    5390:	2b 98       	cbi	0x05, 3	; 5
   }
  util_BitSet(PORTB,OLED_SCL);
    5392:	2d 9a       	sbi	0x05, 5	; 5
  util_BitClear(PORTB,OLED_SCL);
    5394:	2d 98       	cbi	0x05, 5	; 5
    5396:	08 95       	ret

00005398 <display_white_bars>:
	
}


void display_white_bars (void)
{
    5398:	0f 93       	push	r16
    539a:	1f 93       	push	r17
    539c:	cf 93       	push	r28
   util_BitClear(PORTB,OLED_DC);   // SET OLED TO RECEIVE COMMAND
    539e:	28 98       	cbi	0x05, 0	; 5
   send_oled_data(0x22); // Enter the "draw rectangle mode" by execute the command 22h 
    53a0:	82 e2       	ldi	r24, 0x22	; 34
    53a2:	0e 94 93 29 	call	0x5326	; 0x5326 <send_oled_data>
   send_oled_data(bar1_start_row);   //Set the starting row coordinates
    53a6:	80 e0       	ldi	r24, 0x00	; 0
    53a8:	0e 94 93 29 	call	0x5326	; 0x5326 <send_oled_data>
   send_oled_data(0);   //Set the starting column coordinates,
    53ac:	80 e0       	ldi	r24, 0x00	; 0
    53ae:	0e 94 93 29 	call	0x5326	; 0x5326 <send_oled_data>
   send_oled_data(bar1_end_row);  //Set the finishing row coordinates
    53b2:	8a e0       	ldi	r24, 0x0A	; 10
    53b4:	0e 94 93 29 	call	0x5326	; 0x5326 <send_oled_data>
   send_oled_data(63 - c_bar1);  //Set the finishing column coordinates
    53b8:	08 e0       	ldi	r16, 0x08	; 8
    53ba:	11 e0       	ldi	r17, 0x01	; 1
    53bc:	cf e3       	ldi	r28, 0x3F	; 63
    53be:	f8 01       	movw	r30, r16
    53c0:	80 81       	ld	r24, Z
    53c2:	fc 2f       	mov	r31, r28
    53c4:	f8 1b       	sub	r31, r24
    53c6:	8f 2f       	mov	r24, r31
    53c8:	0e 94 93 29 	call	0x5326	; 0x5326 <send_oled_data>
   send_oled_data(0);   //Set the outline color C, B and A
    53cc:	80 e0       	ldi	r24, 0x00	; 0
    53ce:	0e 94 93 29 	call	0x5326	; 0x5326 <send_oled_data>
   send_oled_data(0);
    53d2:	80 e0       	ldi	r24, 0x00	; 0
    53d4:	0e 94 93 29 	call	0x5326	; 0x5326 <send_oled_data>
   send_oled_data(0);
    53d8:	80 e0       	ldi	r24, 0x00	; 0
    53da:	0e 94 93 29 	call	0x5326	; 0x5326 <send_oled_data>
   send_oled_data(0);   //Set the filled color C, B and A
    53de:	80 e0       	ldi	r24, 0x00	; 0
    53e0:	0e 94 93 29 	call	0x5326	; 0x5326 <send_oled_data>
   send_oled_data(0);
    53e4:	80 e0       	ldi	r24, 0x00	; 0
    53e6:	0e 94 93 29 	call	0x5326	; 0x5326 <send_oled_data>
   send_oled_data(0);
    53ea:	80 e0       	ldi	r24, 0x00	; 0
    53ec:	0e 94 93 29 	call	0x5326	; 0x5326 <send_oled_data>
	#else
		//round up by default
		__ticks_dc = (uint32_t)(ceil(fabs(__tmp)));
	#endif

	__builtin_avr_delay_cycles(__ticks_dc);
    53f0:	8f e9       	ldi	r24, 0x9F	; 159
    53f2:	9f e0       	ldi	r25, 0x0F	; 15
    53f4:	01 97       	sbiw	r24, 0x01	; 1
    53f6:	f1 f7       	brne	.-4      	; 0x53f4 <display_white_bars+0x5c>
    53f8:	00 c0       	rjmp	.+0      	; 0x53fa <display_white_bars+0x62>
    53fa:	00 00       	nop
   _delay_ms(2);
   
   send_oled_data(0x22); // Enter the "draw rectangle mode" by execute the command 22h 
    53fc:	82 e2       	ldi	r24, 0x22	; 34
    53fe:	0e 94 93 29 	call	0x5326	; 0x5326 <send_oled_data>
   send_oled_data(bar1_start_row);   //Set the starting row coordinates
    5402:	80 e0       	ldi	r24, 0x00	; 0
    5404:	0e 94 93 29 	call	0x5326	; 0x5326 <send_oled_data>
   send_oled_data(63 - c_bar1);   //Set the starting column coordinates,
    5408:	f8 01       	movw	r30, r16
    540a:	80 81       	ld	r24, Z
    540c:	fc 2f       	mov	r31, r28
    540e:	f8 1b       	sub	r31, r24
    5410:	8f 2f       	mov	r24, r31
    5412:	0e 94 93 29 	call	0x5326	; 0x5326 <send_oled_data>
   send_oled_data(bar1_end_row);  //Set the finishing row coordinates
    5416:	8a e0       	ldi	r24, 0x0A	; 10
    5418:	0e 94 93 29 	call	0x5326	; 0x5326 <send_oled_data>
   send_oled_data(63);  //Set the finishing column coordinates
    541c:	8f e3       	ldi	r24, 0x3F	; 63
    541e:	0e 94 93 29 	call	0x5326	; 0x5326 <send_oled_data>
   send_oled_data(0xff);   //Set the outline color C, B and A
    5422:	8f ef       	ldi	r24, 0xFF	; 255
    5424:	0e 94 93 29 	call	0x5326	; 0x5326 <send_oled_data>
   send_oled_data(0xff);
    5428:	8f ef       	ldi	r24, 0xFF	; 255
    542a:	0e 94 93 29 	call	0x5326	; 0x5326 <send_oled_data>
   send_oled_data(0xff);
    542e:	8f ef       	ldi	r24, 0xFF	; 255
    5430:	0e 94 93 29 	call	0x5326	; 0x5326 <send_oled_data>
   send_oled_data(0xff);   //Set the filled color C, B and A
    5434:	8f ef       	ldi	r24, 0xFF	; 255
    5436:	0e 94 93 29 	call	0x5326	; 0x5326 <send_oled_data>
   send_oled_data(0xff);
    543a:	8f ef       	ldi	r24, 0xFF	; 255
    543c:	0e 94 93 29 	call	0x5326	; 0x5326 <send_oled_data>
   send_oled_data(0xff);
    5440:	8f ef       	ldi	r24, 0xFF	; 255
    5442:	0e 94 93 29 	call	0x5326	; 0x5326 <send_oled_data>
    5446:	8f e9       	ldi	r24, 0x9F	; 159
    5448:	9f e0       	ldi	r25, 0x0F	; 15
    544a:	01 97       	sbiw	r24, 0x01	; 1
    544c:	f1 f7       	brne	.-4      	; 0x544a <display_white_bars+0xb2>
    544e:	00 c0       	rjmp	.+0      	; 0x5450 <display_white_bars+0xb8>
    5450:	00 00       	nop
   _delay_ms(2);
   //===========================
   
   PORTB &=~(OLED_DC);  // SET OLED TO RECEIVE COMMAND
    5452:	85 b1       	in	r24, 0x05	; 5
    5454:	85 b9       	out	0x05, r24	; 5
   send_oled_data(0x22); // Enter the "draw rectangle mode" by execute the command 22h 
    5456:	82 e2       	ldi	r24, 0x22	; 34
    5458:	0e 94 93 29 	call	0x5326	; 0x5326 <send_oled_data>
   send_oled_data(bar2_start_row);   //Set the starting row coordinates
    545c:	8e e0       	ldi	r24, 0x0E	; 14
    545e:	0e 94 93 29 	call	0x5326	; 0x5326 <send_oled_data>
   send_oled_data(0);   //Set the starting column coordinates,
    5462:	80 e0       	ldi	r24, 0x00	; 0
    5464:	0e 94 93 29 	call	0x5326	; 0x5326 <send_oled_data>
   send_oled_data(bar2_end_row);  //Set the finishing row coordinates
    5468:	88 e1       	ldi	r24, 0x18	; 24
    546a:	0e 94 93 29 	call	0x5326	; 0x5326 <send_oled_data>
   send_oled_data(63 - c_bar2);  //Set the finishing column coordinates
    546e:	0f e0       	ldi	r16, 0x0F	; 15
    5470:	11 e0       	ldi	r17, 0x01	; 1
    5472:	f8 01       	movw	r30, r16
    5474:	80 81       	ld	r24, Z
    5476:	fc 2f       	mov	r31, r28
    5478:	f8 1b       	sub	r31, r24
    547a:	8f 2f       	mov	r24, r31
    547c:	0e 94 93 29 	call	0x5326	; 0x5326 <send_oled_data>
   send_oled_data(0);   //Set the outline color C, B and A
    5480:	80 e0       	ldi	r24, 0x00	; 0
    5482:	0e 94 93 29 	call	0x5326	; 0x5326 <send_oled_data>
   send_oled_data(0);
    5486:	80 e0       	ldi	r24, 0x00	; 0
    5488:	0e 94 93 29 	call	0x5326	; 0x5326 <send_oled_data>
   send_oled_data(0);
    548c:	80 e0       	ldi	r24, 0x00	; 0
    548e:	0e 94 93 29 	call	0x5326	; 0x5326 <send_oled_data>
   send_oled_data(0);   //Set the filled color C, B and A
    5492:	80 e0       	ldi	r24, 0x00	; 0
    5494:	0e 94 93 29 	call	0x5326	; 0x5326 <send_oled_data>
   send_oled_data(0);
    5498:	80 e0       	ldi	r24, 0x00	; 0
    549a:	0e 94 93 29 	call	0x5326	; 0x5326 <send_oled_data>
   send_oled_data(0);
    549e:	80 e0       	ldi	r24, 0x00	; 0
    54a0:	0e 94 93 29 	call	0x5326	; 0x5326 <send_oled_data>
    54a4:	8f e9       	ldi	r24, 0x9F	; 159
    54a6:	9f e0       	ldi	r25, 0x0F	; 15
    54a8:	01 97       	sbiw	r24, 0x01	; 1
    54aa:	f1 f7       	brne	.-4      	; 0x54a8 <display_white_bars+0x110>
    54ac:	00 c0       	rjmp	.+0      	; 0x54ae <display_white_bars+0x116>
    54ae:	00 00       	nop
   _delay_ms(2);
   
   send_oled_data(0x22); // Enter the "draw rectangle mode" by execute the command 22h 
    54b0:	82 e2       	ldi	r24, 0x22	; 34
    54b2:	0e 94 93 29 	call	0x5326	; 0x5326 <send_oled_data>
   send_oled_data(bar2_start_row);   //Set the starting row coordinates
    54b6:	8e e0       	ldi	r24, 0x0E	; 14
    54b8:	0e 94 93 29 	call	0x5326	; 0x5326 <send_oled_data>
   send_oled_data(63 - c_bar2);   //Set the starting column coordinates,
    54bc:	f8 01       	movw	r30, r16
    54be:	80 81       	ld	r24, Z
    54c0:	fc 2f       	mov	r31, r28
    54c2:	f8 1b       	sub	r31, r24
    54c4:	8f 2f       	mov	r24, r31
    54c6:	0e 94 93 29 	call	0x5326	; 0x5326 <send_oled_data>
   send_oled_data(bar2_end_row);  //Set the finishing row coordinates
    54ca:	88 e1       	ldi	r24, 0x18	; 24
    54cc:	0e 94 93 29 	call	0x5326	; 0x5326 <send_oled_data>
   send_oled_data(63);  //Set the finishing column coordinates
    54d0:	8f e3       	ldi	r24, 0x3F	; 63
    54d2:	0e 94 93 29 	call	0x5326	; 0x5326 <send_oled_data>
   send_oled_data(0xff);   //Set the outline color C, B and A
    54d6:	8f ef       	ldi	r24, 0xFF	; 255
    54d8:	0e 94 93 29 	call	0x5326	; 0x5326 <send_oled_data>
   send_oled_data(0xff);
    54dc:	8f ef       	ldi	r24, 0xFF	; 255
    54de:	0e 94 93 29 	call	0x5326	; 0x5326 <send_oled_data>
   send_oled_data(0xff);
    54e2:	8f ef       	ldi	r24, 0xFF	; 255
    54e4:	0e 94 93 29 	call	0x5326	; 0x5326 <send_oled_data>
   send_oled_data(0xff);   //Set the filled color C, B and A
    54e8:	8f ef       	ldi	r24, 0xFF	; 255
    54ea:	0e 94 93 29 	call	0x5326	; 0x5326 <send_oled_data>
   send_oled_data(0xff);
    54ee:	8f ef       	ldi	r24, 0xFF	; 255
    54f0:	0e 94 93 29 	call	0x5326	; 0x5326 <send_oled_data>
   send_oled_data(0xff);
    54f4:	8f ef       	ldi	r24, 0xFF	; 255
    54f6:	0e 94 93 29 	call	0x5326	; 0x5326 <send_oled_data>
    54fa:	8f e9       	ldi	r24, 0x9F	; 159
    54fc:	9f e0       	ldi	r25, 0x0F	; 15
    54fe:	01 97       	sbiw	r24, 0x01	; 1
    5500:	f1 f7       	brne	.-4      	; 0x54fe <display_white_bars+0x166>
    5502:	00 c0       	rjmp	.+0      	; 0x5504 <display_white_bars+0x16c>
    5504:	00 00       	nop
   _delay_ms(2);
   //===============================
   
   util_BitClear(PORTB,OLED_DC);   // SET OLED TO RECEIVE COMMAND
    5506:	28 98       	cbi	0x05, 0	; 5
   send_oled_data(0x22); // Enter the "draw rectangle mode" by execute the command 22h 
    5508:	82 e2       	ldi	r24, 0x22	; 34
    550a:	0e 94 93 29 	call	0x5326	; 0x5326 <send_oled_data>
   send_oled_data(bar3_start_row);   //Set the starting row coordinates
    550e:	8c e1       	ldi	r24, 0x1C	; 28
    5510:	0e 94 93 29 	call	0x5326	; 0x5326 <send_oled_data>
   send_oled_data(0);   //Set the starting column coordinates,
    5514:	80 e0       	ldi	r24, 0x00	; 0
    5516:	0e 94 93 29 	call	0x5326	; 0x5326 <send_oled_data>
   send_oled_data(bar3_end_row);  //Set the finishing row coordinates
    551a:	86 e2       	ldi	r24, 0x26	; 38
    551c:	0e 94 93 29 	call	0x5326	; 0x5326 <send_oled_data>
   send_oled_data(63 - c_bar3);  //Set the finishing column coordinates
    5520:	03 e1       	ldi	r16, 0x13	; 19
    5522:	11 e0       	ldi	r17, 0x01	; 1
    5524:	f8 01       	movw	r30, r16
    5526:	80 81       	ld	r24, Z
    5528:	fc 2f       	mov	r31, r28
    552a:	f8 1b       	sub	r31, r24
    552c:	8f 2f       	mov	r24, r31
    552e:	0e 94 93 29 	call	0x5326	; 0x5326 <send_oled_data>
   send_oled_data(0);   //Set the outline color C, B and A
    5532:	80 e0       	ldi	r24, 0x00	; 0
    5534:	0e 94 93 29 	call	0x5326	; 0x5326 <send_oled_data>
   send_oled_data(0);
    5538:	80 e0       	ldi	r24, 0x00	; 0
    553a:	0e 94 93 29 	call	0x5326	; 0x5326 <send_oled_data>
   send_oled_data(0);
    553e:	80 e0       	ldi	r24, 0x00	; 0
    5540:	0e 94 93 29 	call	0x5326	; 0x5326 <send_oled_data>
   send_oled_data(0);   //Set the filled color C, B and A
    5544:	80 e0       	ldi	r24, 0x00	; 0
    5546:	0e 94 93 29 	call	0x5326	; 0x5326 <send_oled_data>
   send_oled_data(0);
    554a:	80 e0       	ldi	r24, 0x00	; 0
    554c:	0e 94 93 29 	call	0x5326	; 0x5326 <send_oled_data>
   send_oled_data(0);
    5550:	80 e0       	ldi	r24, 0x00	; 0
    5552:	0e 94 93 29 	call	0x5326	; 0x5326 <send_oled_data>
    5556:	8f e9       	ldi	r24, 0x9F	; 159
    5558:	9f e0       	ldi	r25, 0x0F	; 15
    555a:	01 97       	sbiw	r24, 0x01	; 1
    555c:	f1 f7       	brne	.-4      	; 0x555a <display_white_bars+0x1c2>
    555e:	00 c0       	rjmp	.+0      	; 0x5560 <display_white_bars+0x1c8>
    5560:	00 00       	nop
   _delay_ms(2);
   
   send_oled_data(0x22); // Enter the "draw rectangle mode" by execute the command 22h 
    5562:	82 e2       	ldi	r24, 0x22	; 34
    5564:	0e 94 93 29 	call	0x5326	; 0x5326 <send_oled_data>
   send_oled_data(bar3_start_row);   //Set the starting row coordinates
    5568:	8c e1       	ldi	r24, 0x1C	; 28
    556a:	0e 94 93 29 	call	0x5326	; 0x5326 <send_oled_data>
   send_oled_data(63 - c_bar3);   //Set the starting column coordinates,
    556e:	f8 01       	movw	r30, r16
    5570:	80 81       	ld	r24, Z
    5572:	fc 2f       	mov	r31, r28
    5574:	f8 1b       	sub	r31, r24
    5576:	8f 2f       	mov	r24, r31
    5578:	0e 94 93 29 	call	0x5326	; 0x5326 <send_oled_data>
   send_oled_data(bar3_end_row);  //Set the finishing row coordinates
    557c:	86 e2       	ldi	r24, 0x26	; 38
    557e:	0e 94 93 29 	call	0x5326	; 0x5326 <send_oled_data>
   send_oled_data(63);  //Set the finishing column coordinates
    5582:	8f e3       	ldi	r24, 0x3F	; 63
    5584:	0e 94 93 29 	call	0x5326	; 0x5326 <send_oled_data>
   send_oled_data(0xff);   //Set the outline color C, B and A
    5588:	8f ef       	ldi	r24, 0xFF	; 255
    558a:	0e 94 93 29 	call	0x5326	; 0x5326 <send_oled_data>
   send_oled_data(0xff);
    558e:	8f ef       	ldi	r24, 0xFF	; 255
    5590:	0e 94 93 29 	call	0x5326	; 0x5326 <send_oled_data>
   send_oled_data(0xff);
    5594:	8f ef       	ldi	r24, 0xFF	; 255
    5596:	0e 94 93 29 	call	0x5326	; 0x5326 <send_oled_data>
   send_oled_data(0xff);   //Set the filled color C, B and A
    559a:	8f ef       	ldi	r24, 0xFF	; 255
    559c:	0e 94 93 29 	call	0x5326	; 0x5326 <send_oled_data>
   send_oled_data(0xff);
    55a0:	8f ef       	ldi	r24, 0xFF	; 255
    55a2:	0e 94 93 29 	call	0x5326	; 0x5326 <send_oled_data>
   send_oled_data(0xff);
    55a6:	8f ef       	ldi	r24, 0xFF	; 255
    55a8:	0e 94 93 29 	call	0x5326	; 0x5326 <send_oled_data>
    55ac:	8f e9       	ldi	r24, 0x9F	; 159
    55ae:	9f e0       	ldi	r25, 0x0F	; 15
    55b0:	01 97       	sbiw	r24, 0x01	; 1
    55b2:	f1 f7       	brne	.-4      	; 0x55b0 <display_white_bars+0x218>
    55b4:	00 c0       	rjmp	.+0      	; 0x55b6 <display_white_bars+0x21e>
    55b6:	00 00       	nop
   _delay_ms(2);
   //==========================
   
   util_BitClear(PORTB,OLED_DC);   // SET OLED TO RECEIVE COMMAND
    55b8:	28 98       	cbi	0x05, 0	; 5
   send_oled_data(0x22); // Enter the "draw rectangle mode" by execute the command 22h 
    55ba:	82 e2       	ldi	r24, 0x22	; 34
    55bc:	0e 94 93 29 	call	0x5326	; 0x5326 <send_oled_data>
   send_oled_data(bar4_start_row);   //Set the starting row coordinates
    55c0:	8a e2       	ldi	r24, 0x2A	; 42
    55c2:	0e 94 93 29 	call	0x5326	; 0x5326 <send_oled_data>
   send_oled_data(0);   //Set the starting column coordinates,
    55c6:	80 e0       	ldi	r24, 0x00	; 0
    55c8:	0e 94 93 29 	call	0x5326	; 0x5326 <send_oled_data>
   send_oled_data(bar4_end_row);  //Set the finishing row coordinates
    55cc:	84 e3       	ldi	r24, 0x34	; 52
    55ce:	0e 94 93 29 	call	0x5326	; 0x5326 <send_oled_data>
   send_oled_data(63 - c_bar4);  //Set the finishing column coordinates
    55d2:	0a e0       	ldi	r16, 0x0A	; 10
    55d4:	11 e0       	ldi	r17, 0x01	; 1
    55d6:	f8 01       	movw	r30, r16
    55d8:	80 81       	ld	r24, Z
    55da:	fc 2f       	mov	r31, r28
    55dc:	f8 1b       	sub	r31, r24
    55de:	8f 2f       	mov	r24, r31
    55e0:	0e 94 93 29 	call	0x5326	; 0x5326 <send_oled_data>
   send_oled_data(0);   //Set the outline color C, B and A
    55e4:	80 e0       	ldi	r24, 0x00	; 0
    55e6:	0e 94 93 29 	call	0x5326	; 0x5326 <send_oled_data>
   send_oled_data(0);
    55ea:	80 e0       	ldi	r24, 0x00	; 0
    55ec:	0e 94 93 29 	call	0x5326	; 0x5326 <send_oled_data>
   send_oled_data(0);
    55f0:	80 e0       	ldi	r24, 0x00	; 0
    55f2:	0e 94 93 29 	call	0x5326	; 0x5326 <send_oled_data>
   send_oled_data(0);   //Set the filled color C, B and A
    55f6:	80 e0       	ldi	r24, 0x00	; 0
    55f8:	0e 94 93 29 	call	0x5326	; 0x5326 <send_oled_data>
   send_oled_data(0);
    55fc:	80 e0       	ldi	r24, 0x00	; 0
    55fe:	0e 94 93 29 	call	0x5326	; 0x5326 <send_oled_data>
   send_oled_data(0);
    5602:	80 e0       	ldi	r24, 0x00	; 0
    5604:	0e 94 93 29 	call	0x5326	; 0x5326 <send_oled_data>
    5608:	8f e9       	ldi	r24, 0x9F	; 159
    560a:	9f e0       	ldi	r25, 0x0F	; 15
    560c:	01 97       	sbiw	r24, 0x01	; 1
    560e:	f1 f7       	brne	.-4      	; 0x560c <display_white_bars+0x274>
    5610:	00 c0       	rjmp	.+0      	; 0x5612 <display_white_bars+0x27a>
    5612:	00 00       	nop
   _delay_ms(2);
   
   send_oled_data(0x22); // Enter the "draw rectangle mode" by execute the command 22h 
    5614:	82 e2       	ldi	r24, 0x22	; 34
    5616:	0e 94 93 29 	call	0x5326	; 0x5326 <send_oled_data>
   send_oled_data(bar4_start_row);   //Set the starting row coordinates
    561a:	8a e2       	ldi	r24, 0x2A	; 42
    561c:	0e 94 93 29 	call	0x5326	; 0x5326 <send_oled_data>
   send_oled_data(63 - c_bar4);   //Set the starting column coordinates,
    5620:	f8 01       	movw	r30, r16
    5622:	80 81       	ld	r24, Z
    5624:	fc 2f       	mov	r31, r28
    5626:	f8 1b       	sub	r31, r24
    5628:	8f 2f       	mov	r24, r31
    562a:	0e 94 93 29 	call	0x5326	; 0x5326 <send_oled_data>
   send_oled_data(bar4_end_row);  //Set the finishing row coordinates
    562e:	84 e3       	ldi	r24, 0x34	; 52
    5630:	0e 94 93 29 	call	0x5326	; 0x5326 <send_oled_data>
   send_oled_data(63);  //Set the finishing column coordinates
    5634:	8f e3       	ldi	r24, 0x3F	; 63
    5636:	0e 94 93 29 	call	0x5326	; 0x5326 <send_oled_data>
   send_oled_data(0xff);   //Set the outline color C, B and A
    563a:	8f ef       	ldi	r24, 0xFF	; 255
    563c:	0e 94 93 29 	call	0x5326	; 0x5326 <send_oled_data>
   send_oled_data(0xff);
    5640:	8f ef       	ldi	r24, 0xFF	; 255
    5642:	0e 94 93 29 	call	0x5326	; 0x5326 <send_oled_data>
   send_oled_data(0xff);
    5646:	8f ef       	ldi	r24, 0xFF	; 255
    5648:	0e 94 93 29 	call	0x5326	; 0x5326 <send_oled_data>
   send_oled_data(0xff);   //Set the filled color C, B and A
    564c:	8f ef       	ldi	r24, 0xFF	; 255
    564e:	0e 94 93 29 	call	0x5326	; 0x5326 <send_oled_data>
   send_oled_data(0xff);
    5652:	8f ef       	ldi	r24, 0xFF	; 255
    5654:	0e 94 93 29 	call	0x5326	; 0x5326 <send_oled_data>
   send_oled_data(0xff);
    5658:	8f ef       	ldi	r24, 0xFF	; 255
    565a:	0e 94 93 29 	call	0x5326	; 0x5326 <send_oled_data>
    565e:	8f e9       	ldi	r24, 0x9F	; 159
    5660:	9f e0       	ldi	r25, 0x0F	; 15
    5662:	01 97       	sbiw	r24, 0x01	; 1
    5664:	f1 f7       	brne	.-4      	; 0x5662 <display_white_bars+0x2ca>
    5666:	00 c0       	rjmp	.+0      	; 0x5668 <display_white_bars+0x2d0>
    5668:	00 00       	nop
   _delay_ms(2);
   //==========================
   
   util_BitClear(PORTB,OLED_DC);   // SET OLED TO RECEIVE COMMAND
    566a:	28 98       	cbi	0x05, 0	; 5
   send_oled_data(0x22); // Enter the "draw rectangle mode" by execute the command 22h 
    566c:	82 e2       	ldi	r24, 0x22	; 34
    566e:	0e 94 93 29 	call	0x5326	; 0x5326 <send_oled_data>
   send_oled_data(bar5_start_row);   //Set the starting row coordinates
    5672:	88 e3       	ldi	r24, 0x38	; 56
    5674:	0e 94 93 29 	call	0x5326	; 0x5326 <send_oled_data>
   send_oled_data(0);   //Set the starting column coordinates,
    5678:	80 e0       	ldi	r24, 0x00	; 0
    567a:	0e 94 93 29 	call	0x5326	; 0x5326 <send_oled_data>
   send_oled_data(bar5_end_row);  //Set the finishing row coordinates
    567e:	82 e4       	ldi	r24, 0x42	; 66
    5680:	0e 94 93 29 	call	0x5326	; 0x5326 <send_oled_data>
   send_oled_data(63 - c_bar5);  //Set the finishing column coordinates
    5684:	01 e1       	ldi	r16, 0x11	; 17
    5686:	11 e0       	ldi	r17, 0x01	; 1
    5688:	f8 01       	movw	r30, r16
    568a:	80 81       	ld	r24, Z
    568c:	fc 2f       	mov	r31, r28
    568e:	f8 1b       	sub	r31, r24
    5690:	8f 2f       	mov	r24, r31
    5692:	0e 94 93 29 	call	0x5326	; 0x5326 <send_oled_data>
   send_oled_data(0);   //Set the outline color C, B and A
    5696:	80 e0       	ldi	r24, 0x00	; 0
    5698:	0e 94 93 29 	call	0x5326	; 0x5326 <send_oled_data>
   send_oled_data(0);
    569c:	80 e0       	ldi	r24, 0x00	; 0
    569e:	0e 94 93 29 	call	0x5326	; 0x5326 <send_oled_data>
   send_oled_data(0);
    56a2:	80 e0       	ldi	r24, 0x00	; 0
    56a4:	0e 94 93 29 	call	0x5326	; 0x5326 <send_oled_data>
   send_oled_data(0);   //Set the filled color C, B and A
    56a8:	80 e0       	ldi	r24, 0x00	; 0
    56aa:	0e 94 93 29 	call	0x5326	; 0x5326 <send_oled_data>
   send_oled_data(0);
    56ae:	80 e0       	ldi	r24, 0x00	; 0
    56b0:	0e 94 93 29 	call	0x5326	; 0x5326 <send_oled_data>
   send_oled_data(0);
    56b4:	80 e0       	ldi	r24, 0x00	; 0
    56b6:	0e 94 93 29 	call	0x5326	; 0x5326 <send_oled_data>
    56ba:	8f e9       	ldi	r24, 0x9F	; 159
    56bc:	9f e0       	ldi	r25, 0x0F	; 15
    56be:	01 97       	sbiw	r24, 0x01	; 1
    56c0:	f1 f7       	brne	.-4      	; 0x56be <display_white_bars+0x326>
    56c2:	00 c0       	rjmp	.+0      	; 0x56c4 <display_white_bars+0x32c>
    56c4:	00 00       	nop
   _delay_ms(2);
   
   send_oled_data(0x22); // Enter the "draw rectangle mode" by execute the command 22h 
    56c6:	82 e2       	ldi	r24, 0x22	; 34
    56c8:	0e 94 93 29 	call	0x5326	; 0x5326 <send_oled_data>
   send_oled_data(bar5_start_row);   //Set the starting row coordinates
    56cc:	88 e3       	ldi	r24, 0x38	; 56
    56ce:	0e 94 93 29 	call	0x5326	; 0x5326 <send_oled_data>
   send_oled_data(63 - c_bar5);   //Set the starting column coordinates,
    56d2:	f8 01       	movw	r30, r16
    56d4:	80 81       	ld	r24, Z
    56d6:	fc 2f       	mov	r31, r28
    56d8:	f8 1b       	sub	r31, r24
    56da:	8f 2f       	mov	r24, r31
    56dc:	0e 94 93 29 	call	0x5326	; 0x5326 <send_oled_data>
   send_oled_data(bar5_end_row);  //Set the finishing row coordinates
    56e0:	82 e4       	ldi	r24, 0x42	; 66
    56e2:	0e 94 93 29 	call	0x5326	; 0x5326 <send_oled_data>
   send_oled_data(63);  //Set the finishing column coordinates
    56e6:	8f e3       	ldi	r24, 0x3F	; 63
    56e8:	0e 94 93 29 	call	0x5326	; 0x5326 <send_oled_data>
   send_oled_data(0xff);   //Set the outline color C, B and A
    56ec:	8f ef       	ldi	r24, 0xFF	; 255
    56ee:	0e 94 93 29 	call	0x5326	; 0x5326 <send_oled_data>
   send_oled_data(0xff);
    56f2:	8f ef       	ldi	r24, 0xFF	; 255
    56f4:	0e 94 93 29 	call	0x5326	; 0x5326 <send_oled_data>
   send_oled_data(0xff);
    56f8:	8f ef       	ldi	r24, 0xFF	; 255
    56fa:	0e 94 93 29 	call	0x5326	; 0x5326 <send_oled_data>
   send_oled_data(0xff);   //Set the filled color C, B and A
    56fe:	8f ef       	ldi	r24, 0xFF	; 255
    5700:	0e 94 93 29 	call	0x5326	; 0x5326 <send_oled_data>
   send_oled_data(0xff);
    5704:	8f ef       	ldi	r24, 0xFF	; 255
    5706:	0e 94 93 29 	call	0x5326	; 0x5326 <send_oled_data>
   send_oled_data(0xff);
    570a:	8f ef       	ldi	r24, 0xFF	; 255
    570c:	0e 94 93 29 	call	0x5326	; 0x5326 <send_oled_data>
    5710:	8f e9       	ldi	r24, 0x9F	; 159
    5712:	9f e0       	ldi	r25, 0x0F	; 15
    5714:	01 97       	sbiw	r24, 0x01	; 1
    5716:	f1 f7       	brne	.-4      	; 0x5714 <display_white_bars+0x37c>
    5718:	00 c0       	rjmp	.+0      	; 0x571a <display_white_bars+0x382>
    571a:	00 00       	nop
   _delay_ms(2);
   //==========================
   
   util_BitClear(PORTB,OLED_DC);   // SET OLED TO RECEIVE COMMAND
    571c:	28 98       	cbi	0x05, 0	; 5
   send_oled_data(0x22); // Enter the "draw rectangle mode" by execute the command 22h 
    571e:	82 e2       	ldi	r24, 0x22	; 34
    5720:	0e 94 93 29 	call	0x5326	; 0x5326 <send_oled_data>
   send_oled_data(bar6_start_row);   //Set the starting row coordinates
    5724:	86 e4       	ldi	r24, 0x46	; 70
    5726:	0e 94 93 29 	call	0x5326	; 0x5326 <send_oled_data>
   send_oled_data(0);   //Set the starting column coordinates,
    572a:	80 e0       	ldi	r24, 0x00	; 0
    572c:	0e 94 93 29 	call	0x5326	; 0x5326 <send_oled_data>
   send_oled_data(bar6_end_row);  //Set the finishing row coordinates
    5730:	80 e5       	ldi	r24, 0x50	; 80
    5732:	0e 94 93 29 	call	0x5326	; 0x5326 <send_oled_data>
   send_oled_data(63 - c_bar6);  //Set the finishing column coordinates
    5736:	06 e0       	ldi	r16, 0x06	; 6
    5738:	11 e0       	ldi	r17, 0x01	; 1
    573a:	f8 01       	movw	r30, r16
    573c:	80 81       	ld	r24, Z
    573e:	fc 2f       	mov	r31, r28
    5740:	f8 1b       	sub	r31, r24
    5742:	8f 2f       	mov	r24, r31
    5744:	0e 94 93 29 	call	0x5326	; 0x5326 <send_oled_data>
   send_oled_data(0);   //Set the outline color C, B and A
    5748:	80 e0       	ldi	r24, 0x00	; 0
    574a:	0e 94 93 29 	call	0x5326	; 0x5326 <send_oled_data>
   send_oled_data(0);
    574e:	80 e0       	ldi	r24, 0x00	; 0
    5750:	0e 94 93 29 	call	0x5326	; 0x5326 <send_oled_data>
   send_oled_data(0);
    5754:	80 e0       	ldi	r24, 0x00	; 0
    5756:	0e 94 93 29 	call	0x5326	; 0x5326 <send_oled_data>
   send_oled_data(0);   //Set the filled color C, B and A
    575a:	80 e0       	ldi	r24, 0x00	; 0
    575c:	0e 94 93 29 	call	0x5326	; 0x5326 <send_oled_data>
   send_oled_data(0);
    5760:	80 e0       	ldi	r24, 0x00	; 0
    5762:	0e 94 93 29 	call	0x5326	; 0x5326 <send_oled_data>
   send_oled_data(0);
    5766:	80 e0       	ldi	r24, 0x00	; 0
    5768:	0e 94 93 29 	call	0x5326	; 0x5326 <send_oled_data>
    576c:	8f e9       	ldi	r24, 0x9F	; 159
    576e:	9f e0       	ldi	r25, 0x0F	; 15
    5770:	01 97       	sbiw	r24, 0x01	; 1
    5772:	f1 f7       	brne	.-4      	; 0x5770 <display_white_bars+0x3d8>
    5774:	00 c0       	rjmp	.+0      	; 0x5776 <display_white_bars+0x3de>
    5776:	00 00       	nop
   _delay_ms(2);
   
   send_oled_data(0x22); // Enter the "draw rectangle mode" by execute the command 22h 
    5778:	82 e2       	ldi	r24, 0x22	; 34
    577a:	0e 94 93 29 	call	0x5326	; 0x5326 <send_oled_data>
   send_oled_data(bar6_start_row);   //Set the starting row coordinates
    577e:	86 e4       	ldi	r24, 0x46	; 70
    5780:	0e 94 93 29 	call	0x5326	; 0x5326 <send_oled_data>
   send_oled_data(63 - c_bar6);   //Set the starting column coordinates,
    5784:	f8 01       	movw	r30, r16
    5786:	80 81       	ld	r24, Z
    5788:	fc 2f       	mov	r31, r28
    578a:	f8 1b       	sub	r31, r24
    578c:	8f 2f       	mov	r24, r31
    578e:	0e 94 93 29 	call	0x5326	; 0x5326 <send_oled_data>
   send_oled_data(bar6_end_row);  //Set the finishing row coordinates
    5792:	80 e5       	ldi	r24, 0x50	; 80
    5794:	0e 94 93 29 	call	0x5326	; 0x5326 <send_oled_data>
   send_oled_data(63);  //Set the finishing column coordinates
    5798:	8f e3       	ldi	r24, 0x3F	; 63
    579a:	0e 94 93 29 	call	0x5326	; 0x5326 <send_oled_data>
   send_oled_data(0xff);   //Set the outline color C, B and A
    579e:	8f ef       	ldi	r24, 0xFF	; 255
    57a0:	0e 94 93 29 	call	0x5326	; 0x5326 <send_oled_data>
   send_oled_data(0xff);
    57a4:	8f ef       	ldi	r24, 0xFF	; 255
    57a6:	0e 94 93 29 	call	0x5326	; 0x5326 <send_oled_data>
   send_oled_data(0xff);
    57aa:	8f ef       	ldi	r24, 0xFF	; 255
    57ac:	0e 94 93 29 	call	0x5326	; 0x5326 <send_oled_data>
   send_oled_data(0xff);   //Set the filled color C, B and A
    57b0:	8f ef       	ldi	r24, 0xFF	; 255
    57b2:	0e 94 93 29 	call	0x5326	; 0x5326 <send_oled_data>
   send_oled_data(0xff);
    57b6:	8f ef       	ldi	r24, 0xFF	; 255
    57b8:	0e 94 93 29 	call	0x5326	; 0x5326 <send_oled_data>
   send_oled_data(0xff);
    57bc:	8f ef       	ldi	r24, 0xFF	; 255
    57be:	0e 94 93 29 	call	0x5326	; 0x5326 <send_oled_data>
    57c2:	8f e9       	ldi	r24, 0x9F	; 159
    57c4:	9f e0       	ldi	r25, 0x0F	; 15
    57c6:	01 97       	sbiw	r24, 0x01	; 1
    57c8:	f1 f7       	brne	.-4      	; 0x57c6 <display_white_bars+0x42e>
    57ca:	00 c0       	rjmp	.+0      	; 0x57cc <display_white_bars+0x434>
    57cc:	00 00       	nop
   _delay_ms(2);
   //==========================
   
   util_BitClear(PORTB,OLED_DC);   // SET OLED TO RECEIVE COMMAND
    57ce:	28 98       	cbi	0x05, 0	; 5
   send_oled_data(0x22); // Enter the "draw rectangle mode" by execute the command 22h 
    57d0:	82 e2       	ldi	r24, 0x22	; 34
    57d2:	0e 94 93 29 	call	0x5326	; 0x5326 <send_oled_data>
   send_oled_data(bar7_start_row);   //Set the starting row coordinates
    57d6:	84 e5       	ldi	r24, 0x54	; 84
    57d8:	0e 94 93 29 	call	0x5326	; 0x5326 <send_oled_data>
   send_oled_data(0);   //Set the starting column coordinates,
    57dc:	80 e0       	ldi	r24, 0x00	; 0
    57de:	0e 94 93 29 	call	0x5326	; 0x5326 <send_oled_data>
   send_oled_data(bar7_end_row);  //Set the finishing row coordinates
    57e2:	8e e5       	ldi	r24, 0x5E	; 94
    57e4:	0e 94 93 29 	call	0x5326	; 0x5326 <send_oled_data>
   send_oled_data(63 - c_bar7);  //Set the finishing column coordinates
    57e8:	05 e1       	ldi	r16, 0x15	; 21
    57ea:	11 e0       	ldi	r17, 0x01	; 1
    57ec:	f8 01       	movw	r30, r16
    57ee:	80 81       	ld	r24, Z
    57f0:	fc 2f       	mov	r31, r28
    57f2:	f8 1b       	sub	r31, r24
    57f4:	8f 2f       	mov	r24, r31
    57f6:	0e 94 93 29 	call	0x5326	; 0x5326 <send_oled_data>
   send_oled_data(0);   //Set the outline color C, B and A
    57fa:	80 e0       	ldi	r24, 0x00	; 0
    57fc:	0e 94 93 29 	call	0x5326	; 0x5326 <send_oled_data>
   send_oled_data(0);
    5800:	80 e0       	ldi	r24, 0x00	; 0
    5802:	0e 94 93 29 	call	0x5326	; 0x5326 <send_oled_data>
   send_oled_data(0);
    5806:	80 e0       	ldi	r24, 0x00	; 0
    5808:	0e 94 93 29 	call	0x5326	; 0x5326 <send_oled_data>
   send_oled_data(0);   //Set the filled color C, B and A
    580c:	80 e0       	ldi	r24, 0x00	; 0
    580e:	0e 94 93 29 	call	0x5326	; 0x5326 <send_oled_data>
   send_oled_data(0);
    5812:	80 e0       	ldi	r24, 0x00	; 0
    5814:	0e 94 93 29 	call	0x5326	; 0x5326 <send_oled_data>
   send_oled_data(0);
    5818:	80 e0       	ldi	r24, 0x00	; 0
    581a:	0e 94 93 29 	call	0x5326	; 0x5326 <send_oled_data>
    581e:	8f e9       	ldi	r24, 0x9F	; 159
    5820:	9f e0       	ldi	r25, 0x0F	; 15
    5822:	01 97       	sbiw	r24, 0x01	; 1
    5824:	f1 f7       	brne	.-4      	; 0x5822 <display_white_bars+0x48a>
    5826:	00 c0       	rjmp	.+0      	; 0x5828 <display_white_bars+0x490>
    5828:	00 00       	nop
   _delay_ms(2);
   
   send_oled_data(0x22); // Enter the "draw rectangle mode" by execute the command 22h 
    582a:	82 e2       	ldi	r24, 0x22	; 34
    582c:	0e 94 93 29 	call	0x5326	; 0x5326 <send_oled_data>
   send_oled_data(bar7_start_row);   //Set the starting row coordinates
    5830:	84 e5       	ldi	r24, 0x54	; 84
    5832:	0e 94 93 29 	call	0x5326	; 0x5326 <send_oled_data>
   send_oled_data(63 - c_bar7);   //Set the starting column coordinates,
    5836:	f8 01       	movw	r30, r16
    5838:	80 81       	ld	r24, Z
    583a:	c8 1b       	sub	r28, r24
    583c:	8c 2f       	mov	r24, r28
    583e:	0e 94 93 29 	call	0x5326	; 0x5326 <send_oled_data>
   send_oled_data(bar7_end_row);  //Set the finishing row coordinates
    5842:	8e e5       	ldi	r24, 0x5E	; 94
    5844:	0e 94 93 29 	call	0x5326	; 0x5326 <send_oled_data>
   send_oled_data(63);  //Set the finishing column coordinates
    5848:	8f e3       	ldi	r24, 0x3F	; 63
    584a:	0e 94 93 29 	call	0x5326	; 0x5326 <send_oled_data>
   send_oled_data(0xff);   //Set the outline color C, B and A
    584e:	8f ef       	ldi	r24, 0xFF	; 255
    5850:	0e 94 93 29 	call	0x5326	; 0x5326 <send_oled_data>
   send_oled_data(0xff);
    5854:	8f ef       	ldi	r24, 0xFF	; 255
    5856:	0e 94 93 29 	call	0x5326	; 0x5326 <send_oled_data>
   send_oled_data(0xff);
    585a:	8f ef       	ldi	r24, 0xFF	; 255
    585c:	0e 94 93 29 	call	0x5326	; 0x5326 <send_oled_data>
   send_oled_data(0xff);   //Set the filled color C, B and A
    5860:	8f ef       	ldi	r24, 0xFF	; 255
    5862:	0e 94 93 29 	call	0x5326	; 0x5326 <send_oled_data>
   send_oled_data(0xff);
    5866:	8f ef       	ldi	r24, 0xFF	; 255
    5868:	0e 94 93 29 	call	0x5326	; 0x5326 <send_oled_data>
   send_oled_data(0xff);
    586c:	8f ef       	ldi	r24, 0xFF	; 255
    586e:	0e 94 93 29 	call	0x5326	; 0x5326 <send_oled_data>
    5872:	8f e9       	ldi	r24, 0x9F	; 159
    5874:	9f e0       	ldi	r25, 0x0F	; 15
    5876:	01 97       	sbiw	r24, 0x01	; 1
    5878:	f1 f7       	brne	.-4      	; 0x5876 <display_white_bars+0x4de>
    587a:	00 c0       	rjmp	.+0      	; 0x587c <display_white_bars+0x4e4>
    587c:	00 00       	nop
   _delay_ms(2);
   //==========================
}
    587e:	cf 91       	pop	r28
    5880:	1f 91       	pop	r17
    5882:	0f 91       	pop	r16
    5884:	08 95       	ret

00005886 <display_full_white>:



void display_full_white (void)
{
   util_BitClear(PORTB,OLED_DC);   // SET OLED TO RECEIVE COMMAND
    5886:	28 98       	cbi	0x05, 0	; 5
   send_oled_data(0x22); // Enter the "draw rectangle mode" by execute the command 22h 
    5888:	82 e2       	ldi	r24, 0x22	; 34
    588a:	0e 94 93 29 	call	0x5326	; 0x5326 <send_oled_data>
   send_oled_data(0);   //Set the starting row coordinates
    588e:	80 e0       	ldi	r24, 0x00	; 0
    5890:	0e 94 93 29 	call	0x5326	; 0x5326 <send_oled_data>
   send_oled_data(0);   //Set the starting column coordinates,
    5894:	80 e0       	ldi	r24, 0x00	; 0
    5896:	0e 94 93 29 	call	0x5326	; 0x5326 <send_oled_data>
   send_oled_data(95);  //Set the finishing row coordinates
    589a:	8f e5       	ldi	r24, 0x5F	; 95
    589c:	0e 94 93 29 	call	0x5326	; 0x5326 <send_oled_data>
   send_oled_data(63);  //Set the finishing column coordinates
    58a0:	8f e3       	ldi	r24, 0x3F	; 63
    58a2:	0e 94 93 29 	call	0x5326	; 0x5326 <send_oled_data>
   send_oled_data(0xff);   //Set the outline color C, B and A
    58a6:	8f ef       	ldi	r24, 0xFF	; 255
    58a8:	0e 94 93 29 	call	0x5326	; 0x5326 <send_oled_data>
   send_oled_data(0xff);
    58ac:	8f ef       	ldi	r24, 0xFF	; 255
    58ae:	0e 94 93 29 	call	0x5326	; 0x5326 <send_oled_data>
   send_oled_data(0xff);
    58b2:	8f ef       	ldi	r24, 0xFF	; 255
    58b4:	0e 94 93 29 	call	0x5326	; 0x5326 <send_oled_data>
   send_oled_data(0xff);   //Set the filled color C, B and A
    58b8:	8f ef       	ldi	r24, 0xFF	; 255
    58ba:	0e 94 93 29 	call	0x5326	; 0x5326 <send_oled_data>
   send_oled_data(0xff);
    58be:	8f ef       	ldi	r24, 0xFF	; 255
    58c0:	0e 94 93 29 	call	0x5326	; 0x5326 <send_oled_data>
   send_oled_data(0xff);
    58c4:	8f ef       	ldi	r24, 0xFF	; 255
    58c6:	0e 94 93 29 	call	0x5326	; 0x5326 <send_oled_data>
    58ca:	08 95       	ret

000058cc <display_blank>:



void display_blank (void)
{
   util_BitClear(PORTB,OLED_DC);   // SET OLED TO RECEIVE COMMAND
    58cc:	28 98       	cbi	0x05, 0	; 5
   
   send_oled_data(0x25); // Enter the "clear mode" by execute the command 25h
    58ce:	85 e2       	ldi	r24, 0x25	; 37
    58d0:	0e 94 93 29 	call	0x5326	; 0x5326 <send_oled_data>
   send_oled_data(0);   //Set the starting row coordinates
    58d4:	80 e0       	ldi	r24, 0x00	; 0
    58d6:	0e 94 93 29 	call	0x5326	; 0x5326 <send_oled_data>
   send_oled_data(0);   //Set the starting column coordinates,
    58da:	80 e0       	ldi	r24, 0x00	; 0
    58dc:	0e 94 93 29 	call	0x5326	; 0x5326 <send_oled_data>
   send_oled_data(95);  //Set the finishing row coordinates
    58e0:	8f e5       	ldi	r24, 0x5F	; 95
    58e2:	0e 94 93 29 	call	0x5326	; 0x5326 <send_oled_data>
   send_oled_data(63);  //Set the finishing column coordinates
    58e6:	8f e3       	ldi	r24, 0x3F	; 63
    58e8:	0e 94 93 29 	call	0x5326	; 0x5326 <send_oled_data>
    58ec:	8f e9       	ldi	r24, 0x9F	; 159
    58ee:	9f e0       	ldi	r25, 0x0F	; 15
    58f0:	01 97       	sbiw	r24, 0x01	; 1
    58f2:	f1 f7       	brne	.-4      	; 0x58f0 <display_blank+0x24>
    58f4:	00 c0       	rjmp	.+0      	; 0x58f6 <display_blank+0x2a>
    58f6:	00 00       	nop
    58f8:	08 95       	ret

000058fa <display_elektor_logo>:
}



void display_elektor_logo (void)
{
    58fa:	0f 93       	push	r16
    58fc:	1f 93       	push	r17
    58fe:	cf 93       	push	r28
    5900:	df 93       	push	r29
	int16_t i_counter = 0;
   
   util_BitSet(PORTB,OLED_DC);   // SET OLED TO RECEIVE DATA
    5902:	28 9a       	sbi	0x05, 0	; 5
    5904:	c8 ee       	ldi	r28, 0xE8	; 232
    5906:	de e2       	ldi	r29, 0x2E	; 46
    5908:	08 ee       	ldi	r16, 0xE8	; 232
    590a:	12 e5       	ldi	r17, 0x52	; 82
   while(i_counter < 9216)
   {
      send_oled_data(pgm_read_byte(&gImage_elektor_logo[i_counter]));
    590c:	fe 01       	movw	r30, r28
    590e:	84 91       	lpm	r24, Z
    5910:	0e 94 93 29 	call	0x5326	; 0x5326 <send_oled_data>
    5914:	21 96       	adiw	r28, 0x01	; 1
void display_elektor_logo (void)
{
	int16_t i_counter = 0;
   
   util_BitSet(PORTB,OLED_DC);   // SET OLED TO RECEIVE DATA
   while(i_counter < 9216)
    5916:	c0 17       	cp	r28, r16
    5918:	d1 07       	cpc	r29, r17
    591a:	c1 f7       	brne	.-16     	; 0x590c <display_elektor_logo+0x12>
   {
      send_oled_data(pgm_read_byte(&gImage_elektor_logo[i_counter]));
      i_counter++;
   } 
}
    591c:	df 91       	pop	r29
    591e:	cf 91       	pop	r28
    5920:	1f 91       	pop	r17
    5922:	0f 91       	pop	r16
    5924:	08 95       	ret

00005926 <display_name>:

void display_name (void)
{
    5926:	0f 93       	push	r16
    5928:	1f 93       	push	r17
    592a:	cf 93       	push	r28
    592c:	df 93       	push	r29
int16_t i_counter = 0;
   
   util_BitSet(PORTB,OLED_DC);    // SET OLED TO RECEIVE DATA
    592e:	28 9a       	sbi	0x05, 0	; 5
    5930:	c8 e6       	ldi	r28, 0x68	; 104
    5932:	d0 e0       	ldi	r29, 0x00	; 0
    5934:	08 ee       	ldi	r16, 0xE8	; 232
    5936:	1e e2       	ldi	r17, 0x2E	; 46
   while(i_counter < 11904)
   {
      send_oled_data(pgm_read_byte(&gImage_name[i_counter]));
    5938:	fe 01       	movw	r30, r28
    593a:	84 91       	lpm	r24, Z
    593c:	0e 94 93 29 	call	0x5326	; 0x5326 <send_oled_data>
    5940:	21 96       	adiw	r28, 0x01	; 1
void display_name (void)
{
int16_t i_counter = 0;
   
   util_BitSet(PORTB,OLED_DC);    // SET OLED TO RECEIVE DATA
   while(i_counter < 11904)
    5942:	c0 17       	cp	r28, r16
    5944:	d1 07       	cpc	r29, r17
    5946:	c1 f7       	brne	.-16     	; 0x5938 <display_name+0x12>
   {
      send_oled_data(pgm_read_byte(&gImage_name[i_counter]));
      i_counter++;
   } 
}
    5948:	df 91       	pop	r29
    594a:	cf 91       	pop	r28
    594c:	1f 91       	pop	r17
    594e:	0f 91       	pop	r16
    5950:	08 95       	ret

00005952 <ADCinit>:

void ADCinit(){
	ADCSRA=0b0111           ; // predivider 128
    5952:	ea e7       	ldi	r30, 0x7A	; 122
    5954:	f0 e0       	ldi	r31, 0x00	; 0
    5956:	87 e0       	ldi	r24, 0x07	; 7
    5958:	80 83       	st	Z, r24
	ADCSRA |= ( 1 << ADEN)  ; // enable
    595a:	80 81       	ld	r24, Z
    595c:	80 68       	ori	r24, 0x80	; 128
    595e:	80 83       	st	Z, r24
	// ADMUX =0b00000001 ; // Vref=Aref external , input at ADC1 pin 24
	ADMUX =0b01000001 ; // Vref=AVcc , input at ADC1 pin 24
    5960:	81 e4       	ldi	r24, 0x41	; 65
    5962:	80 93 7c 00 	sts	0x007C, r24	; 0x80007c <__TEXT_REGION_LENGTH__+0x7e007c>
    5966:	08 95       	ret

00005968 <getADC>:
}

//Read Analog value from the channel
uint16_t getADC(uint8_t Channel){
	ADMUX &=0b11110000 ;
    5968:	ec e7       	ldi	r30, 0x7C	; 124
    596a:	f0 e0       	ldi	r31, 0x00	; 0
    596c:	90 81       	ld	r25, Z
    596e:	90 7f       	andi	r25, 0xF0	; 240
    5970:	90 83       	st	Z, r25
	ADMUX |=Channel ;
    5972:	90 81       	ld	r25, Z
    5974:	89 2b       	or	r24, r25
    5976:	80 83       	st	Z, r24
	ADCSRA |= ( 1 << ADSC)  ;
    5978:	ea e7       	ldi	r30, 0x7A	; 122
    597a:	f0 e0       	ldi	r31, 0x00	; 0
    597c:	80 81       	ld	r24, Z
    597e:	80 64       	ori	r24, 0x40	; 64
    5980:	80 83       	st	Z, r24
	while ( (ADCSRA & (1 << ADIF ))==0 ){ } ;
    5982:	80 81       	ld	r24, Z
    5984:	84 ff       	sbrs	r24, 4
    5986:	fd cf       	rjmp	.-6      	; 0x5982 <getADC+0x1a>
	ADCSRA |= (1 << ADIF ) ;
    5988:	ea e7       	ldi	r30, 0x7A	; 122
    598a:	f0 e0       	ldi	r31, 0x00	; 0
    598c:	80 81       	ld	r24, Z
    598e:	80 61       	ori	r24, 0x10	; 16
    5990:	80 83       	st	Z, r24
	return ADC ;
    5992:	80 91 78 00 	lds	r24, 0x0078	; 0x800078 <__TEXT_REGION_LENGTH__+0x7e0078>
    5996:	90 91 79 00 	lds	r25, 0x0079	; 0x800079 <__TEXT_REGION_LENGTH__+0x7e0079>
}
    599a:	08 95       	ret

0000599c <read_sa>:

void read_sa(void)
{
	uint16_t temp=0;
	// RESET PULSE
	util_BitSet(PORTC,SA_RESET);
    599c:	42 9a       	sbi	0x08, 2	; 8
	util_BitSet(PORTC,SA_STROBE);
    599e:	41 9a       	sbi	0x08, 1	; 8
    59a0:	8f ec       	ldi	r24, 0xCF	; 207
    59a2:	97 e0       	ldi	r25, 0x07	; 7
    59a4:	01 97       	sbiw	r24, 0x01	; 1
    59a6:	f1 f7       	brne	.-4      	; 0x59a4 <read_sa+0x8>
    59a8:	00 c0       	rjmp	.+0      	; 0x59aa <read_sa+0xe>
    59aa:	00 00       	nop
	_delay_ms(1);
	util_BitClear(PORTC,SA_STROBE);
    59ac:	41 98       	cbi	0x08, 1	; 8
    59ae:	8f ec       	ldi	r24, 0xCF	; 207
    59b0:	97 e0       	ldi	r25, 0x07	; 7
    59b2:	01 97       	sbiw	r24, 0x01	; 1
    59b4:	f1 f7       	brne	.-4      	; 0x59b2 <read_sa+0x16>
    59b6:	00 c0       	rjmp	.+0      	; 0x59b8 <read_sa+0x1c>
    59b8:	00 00       	nop
	_delay_ms(1);
	util_BitClear(PORTC,SA_RESET);
    59ba:	42 98       	cbi	0x08, 2	; 8
	util_BitSet(PORTC,SA_STROBE);
    59bc:	41 9a       	sbi	0x08, 1	; 8
    59be:	8f ec       	ldi	r24, 0xCF	; 207
    59c0:	97 e0       	ldi	r25, 0x07	; 7
    59c2:	01 97       	sbiw	r24, 0x01	; 1
    59c4:	f1 f7       	brne	.-4      	; 0x59c2 <read_sa+0x26>
    59c6:	00 c0       	rjmp	.+0      	; 0x59c8 <read_sa+0x2c>
    59c8:	00 00       	nop
	_delay_ms(1);
	
	// read 63Hz
	util_BitClear(PORTC,SA_STROBE);
    59ca:	41 98       	cbi	0x08, 1	; 8
    59cc:	8f ec       	ldi	r24, 0xCF	; 207
    59ce:	97 e0       	ldi	r25, 0x07	; 7
    59d0:	01 97       	sbiw	r24, 0x01	; 1
    59d2:	f1 f7       	brne	.-4      	; 0x59d0 <read_sa+0x34>
    59d4:	00 c0       	rjmp	.+0      	; 0x59d6 <read_sa+0x3a>
    59d6:	00 00       	nop
	_delay_ms(1);
	temp = getADC(ADC_PIN);
    59d8:	80 e0       	ldi	r24, 0x00	; 0
    59da:	0e 94 b4 2c 	call	0x5968	; 0x5968 <getADC>
	if(temp > OFFSET)
    59de:	81 3c       	cpi	r24, 0xC1	; 193
    59e0:	91 05       	cpc	r25, r1
    59e2:	98 f0       	brcs	.+38     	; 0x5a0a <read_sa+0x6e>
	{
		c_bar1 = (temp - OFFSET);
    59e4:	80 5c       	subi	r24, 0xC0	; 192
    59e6:	91 09       	sbc	r25, r1
		if(c_bar1 > DIVIDE)
    59e8:	8e 30       	cpi	r24, 0x0E	; 14
    59ea:	91 05       	cpc	r25, r1
    59ec:	4c f0       	brlt	.+18     	; 0x5a00 <read_sa+0x64>
			c_bar1 /= DIVIDE;
    59ee:	6d e0       	ldi	r22, 0x0D	; 13
    59f0:	70 e0       	ldi	r23, 0x00	; 0
    59f2:	0e 94 6e 35 	call	0x6adc	; 0x6adc <__divmodhi4>
    59f6:	70 93 09 01 	sts	0x0109, r23	; 0x800109 <c_bar1+0x1>
    59fa:	60 93 08 01 	sts	0x0108, r22	; 0x800108 <c_bar1>
    59fe:	09 c0       	rjmp	.+18     	; 0x5a12 <read_sa+0x76>
		else
			c_bar1 = 0;
    5a00:	10 92 09 01 	sts	0x0109, r1	; 0x800109 <c_bar1+0x1>
    5a04:	10 92 08 01 	sts	0x0108, r1	; 0x800108 <c_bar1>
    5a08:	04 c0       	rjmp	.+8      	; 0x5a12 <read_sa+0x76>
	}
	else
		c_bar1 = 0;
    5a0a:	10 92 09 01 	sts	0x0109, r1	; 0x800109 <c_bar1+0x1>
    5a0e:	10 92 08 01 	sts	0x0108, r1	; 0x800108 <c_bar1>
	util_BitSet(PORTC,SA_STROBE);
    5a12:	41 9a       	sbi	0x08, 1	; 8
    5a14:	8f ec       	ldi	r24, 0xCF	; 207
    5a16:	97 e0       	ldi	r25, 0x07	; 7
    5a18:	01 97       	sbiw	r24, 0x01	; 1
    5a1a:	f1 f7       	brne	.-4      	; 0x5a18 <read_sa+0x7c>
    5a1c:	00 c0       	rjmp	.+0      	; 0x5a1e <read_sa+0x82>
    5a1e:	00 00       	nop
	_delay_ms(1);
	
	// read 160Hz
	util_BitClear(PORTC,SA_STROBE);
    5a20:	41 98       	cbi	0x08, 1	; 8
    5a22:	8f ec       	ldi	r24, 0xCF	; 207
    5a24:	97 e0       	ldi	r25, 0x07	; 7
    5a26:	01 97       	sbiw	r24, 0x01	; 1
    5a28:	f1 f7       	brne	.-4      	; 0x5a26 <read_sa+0x8a>
    5a2a:	00 c0       	rjmp	.+0      	; 0x5a2c <read_sa+0x90>
    5a2c:	00 00       	nop
	_delay_ms(1);
	temp = getADC(ADC_PIN);
    5a2e:	80 e0       	ldi	r24, 0x00	; 0
    5a30:	0e 94 b4 2c 	call	0x5968	; 0x5968 <getADC>
	if(temp > OFFSET)
    5a34:	81 3c       	cpi	r24, 0xC1	; 193
    5a36:	91 05       	cpc	r25, r1
    5a38:	98 f0       	brcs	.+38     	; 0x5a60 <read_sa+0xc4>
	{
		c_bar2 = (temp - OFFSET);
    5a3a:	80 5c       	subi	r24, 0xC0	; 192
    5a3c:	91 09       	sbc	r25, r1
		if(c_bar2 > DIVIDE)
    5a3e:	8e 30       	cpi	r24, 0x0E	; 14
    5a40:	91 05       	cpc	r25, r1
    5a42:	4c f0       	brlt	.+18     	; 0x5a56 <read_sa+0xba>
		c_bar2 /= DIVIDE;
    5a44:	6d e0       	ldi	r22, 0x0D	; 13
    5a46:	70 e0       	ldi	r23, 0x00	; 0
    5a48:	0e 94 6e 35 	call	0x6adc	; 0x6adc <__divmodhi4>
    5a4c:	70 93 10 01 	sts	0x0110, r23	; 0x800110 <c_bar2+0x1>
    5a50:	60 93 0f 01 	sts	0x010F, r22	; 0x80010f <c_bar2>
    5a54:	09 c0       	rjmp	.+18     	; 0x5a68 <read_sa+0xcc>
		else
		c_bar2 = 0;
    5a56:	10 92 10 01 	sts	0x0110, r1	; 0x800110 <c_bar2+0x1>
    5a5a:	10 92 0f 01 	sts	0x010F, r1	; 0x80010f <c_bar2>
    5a5e:	04 c0       	rjmp	.+8      	; 0x5a68 <read_sa+0xcc>
	}
	else
	c_bar2 = 0;
    5a60:	10 92 10 01 	sts	0x0110, r1	; 0x800110 <c_bar2+0x1>
    5a64:	10 92 0f 01 	sts	0x010F, r1	; 0x80010f <c_bar2>
	util_BitSet(PORTC,SA_STROBE);
    5a68:	41 9a       	sbi	0x08, 1	; 8
    5a6a:	8f ec       	ldi	r24, 0xCF	; 207
    5a6c:	97 e0       	ldi	r25, 0x07	; 7
    5a6e:	01 97       	sbiw	r24, 0x01	; 1
    5a70:	f1 f7       	brne	.-4      	; 0x5a6e <read_sa+0xd2>
    5a72:	00 c0       	rjmp	.+0      	; 0x5a74 <read_sa+0xd8>
    5a74:	00 00       	nop
	_delay_ms(1);
	
	// read 400Hz
	util_BitClear(PORTC,SA_STROBE);
    5a76:	41 98       	cbi	0x08, 1	; 8
    5a78:	8f ec       	ldi	r24, 0xCF	; 207
    5a7a:	97 e0       	ldi	r25, 0x07	; 7
    5a7c:	01 97       	sbiw	r24, 0x01	; 1
    5a7e:	f1 f7       	brne	.-4      	; 0x5a7c <read_sa+0xe0>
    5a80:	00 c0       	rjmp	.+0      	; 0x5a82 <read_sa+0xe6>
    5a82:	00 00       	nop
	_delay_ms(1);
	temp = getADC(ADC_PIN);
    5a84:	80 e0       	ldi	r24, 0x00	; 0
    5a86:	0e 94 b4 2c 	call	0x5968	; 0x5968 <getADC>
	if(temp > OFFSET)
    5a8a:	81 3c       	cpi	r24, 0xC1	; 193
    5a8c:	91 05       	cpc	r25, r1
    5a8e:	98 f0       	brcs	.+38     	; 0x5ab6 <read_sa+0x11a>
	{
		c_bar3 = (temp - OFFSET);
    5a90:	80 5c       	subi	r24, 0xC0	; 192
    5a92:	91 09       	sbc	r25, r1
		if(c_bar3 > DIVIDE)
    5a94:	8e 30       	cpi	r24, 0x0E	; 14
    5a96:	91 05       	cpc	r25, r1
    5a98:	4c f0       	brlt	.+18     	; 0x5aac <read_sa+0x110>
			c_bar3 /= DIVIDE;
    5a9a:	6d e0       	ldi	r22, 0x0D	; 13
    5a9c:	70 e0       	ldi	r23, 0x00	; 0
    5a9e:	0e 94 6e 35 	call	0x6adc	; 0x6adc <__divmodhi4>
    5aa2:	70 93 14 01 	sts	0x0114, r23	; 0x800114 <c_bar3+0x1>
    5aa6:	60 93 13 01 	sts	0x0113, r22	; 0x800113 <c_bar3>
    5aaa:	09 c0       	rjmp	.+18     	; 0x5abe <read_sa+0x122>
		else
			c_bar3 = 0;
    5aac:	10 92 14 01 	sts	0x0114, r1	; 0x800114 <c_bar3+0x1>
    5ab0:	10 92 13 01 	sts	0x0113, r1	; 0x800113 <c_bar3>
    5ab4:	04 c0       	rjmp	.+8      	; 0x5abe <read_sa+0x122>
	}
	else
		c_bar3 = 0;
    5ab6:	10 92 14 01 	sts	0x0114, r1	; 0x800114 <c_bar3+0x1>
    5aba:	10 92 13 01 	sts	0x0113, r1	; 0x800113 <c_bar3>
	util_BitSet(PORTC,SA_STROBE);
    5abe:	41 9a       	sbi	0x08, 1	; 8
    5ac0:	8f ec       	ldi	r24, 0xCF	; 207
    5ac2:	97 e0       	ldi	r25, 0x07	; 7
    5ac4:	01 97       	sbiw	r24, 0x01	; 1
    5ac6:	f1 f7       	brne	.-4      	; 0x5ac4 <read_sa+0x128>
    5ac8:	00 c0       	rjmp	.+0      	; 0x5aca <read_sa+0x12e>
    5aca:	00 00       	nop
	_delay_ms(1);
	
	// read 1kHz
	util_BitClear(PORTC,SA_STROBE);
    5acc:	41 98       	cbi	0x08, 1	; 8
    5ace:	8f ec       	ldi	r24, 0xCF	; 207
    5ad0:	97 e0       	ldi	r25, 0x07	; 7
    5ad2:	01 97       	sbiw	r24, 0x01	; 1
    5ad4:	f1 f7       	brne	.-4      	; 0x5ad2 <read_sa+0x136>
    5ad6:	00 c0       	rjmp	.+0      	; 0x5ad8 <read_sa+0x13c>
    5ad8:	00 00       	nop
	_delay_ms(1);
	temp = getADC(ADC_PIN);
    5ada:	80 e0       	ldi	r24, 0x00	; 0
    5adc:	0e 94 b4 2c 	call	0x5968	; 0x5968 <getADC>
	if(temp > OFFSET)
    5ae0:	81 3c       	cpi	r24, 0xC1	; 193
    5ae2:	91 05       	cpc	r25, r1
    5ae4:	98 f0       	brcs	.+38     	; 0x5b0c <read_sa+0x170>
	{
		c_bar4 = (temp - OFFSET);
    5ae6:	80 5c       	subi	r24, 0xC0	; 192
    5ae8:	91 09       	sbc	r25, r1
		if(c_bar4 > DIVIDE)
    5aea:	8e 30       	cpi	r24, 0x0E	; 14
    5aec:	91 05       	cpc	r25, r1
    5aee:	4c f0       	brlt	.+18     	; 0x5b02 <read_sa+0x166>
		c_bar4 /= DIVIDE;
    5af0:	6d e0       	ldi	r22, 0x0D	; 13
    5af2:	70 e0       	ldi	r23, 0x00	; 0
    5af4:	0e 94 6e 35 	call	0x6adc	; 0x6adc <__divmodhi4>
    5af8:	70 93 0b 01 	sts	0x010B, r23	; 0x80010b <c_bar4+0x1>
    5afc:	60 93 0a 01 	sts	0x010A, r22	; 0x80010a <c_bar4>
    5b00:	09 c0       	rjmp	.+18     	; 0x5b14 <read_sa+0x178>
		else
		c_bar4 = 0;
    5b02:	10 92 0b 01 	sts	0x010B, r1	; 0x80010b <c_bar4+0x1>
    5b06:	10 92 0a 01 	sts	0x010A, r1	; 0x80010a <c_bar4>
    5b0a:	04 c0       	rjmp	.+8      	; 0x5b14 <read_sa+0x178>
	}
	else
		c_bar4 = 0;
    5b0c:	10 92 0b 01 	sts	0x010B, r1	; 0x80010b <c_bar4+0x1>
    5b10:	10 92 0a 01 	sts	0x010A, r1	; 0x80010a <c_bar4>
	util_BitSet(PORTC,SA_STROBE);
    5b14:	41 9a       	sbi	0x08, 1	; 8
    5b16:	8f ec       	ldi	r24, 0xCF	; 207
    5b18:	97 e0       	ldi	r25, 0x07	; 7
    5b1a:	01 97       	sbiw	r24, 0x01	; 1
    5b1c:	f1 f7       	brne	.-4      	; 0x5b1a <read_sa+0x17e>
    5b1e:	00 c0       	rjmp	.+0      	; 0x5b20 <read_sa+0x184>
    5b20:	00 00       	nop
	_delay_ms(1);
	
	// read 2.5kHz
	util_BitClear(PORTC,SA_STROBE);
    5b22:	41 98       	cbi	0x08, 1	; 8
    5b24:	8f ec       	ldi	r24, 0xCF	; 207
    5b26:	97 e0       	ldi	r25, 0x07	; 7
    5b28:	01 97       	sbiw	r24, 0x01	; 1
    5b2a:	f1 f7       	brne	.-4      	; 0x5b28 <read_sa+0x18c>
    5b2c:	00 c0       	rjmp	.+0      	; 0x5b2e <read_sa+0x192>
    5b2e:	00 00       	nop
	_delay_ms(1);
	temp = getADC(ADC_PIN);
    5b30:	80 e0       	ldi	r24, 0x00	; 0
    5b32:	0e 94 b4 2c 	call	0x5968	; 0x5968 <getADC>
	if(temp > OFFSET)
    5b36:	81 3c       	cpi	r24, 0xC1	; 193
    5b38:	91 05       	cpc	r25, r1
    5b3a:	98 f0       	brcs	.+38     	; 0x5b62 <read_sa+0x1c6>
	{
		c_bar5 = (temp - OFFSET);
    5b3c:	80 5c       	subi	r24, 0xC0	; 192
    5b3e:	91 09       	sbc	r25, r1
		if(c_bar5 > DIVIDE)
    5b40:	8e 30       	cpi	r24, 0x0E	; 14
    5b42:	91 05       	cpc	r25, r1
    5b44:	4c f0       	brlt	.+18     	; 0x5b58 <read_sa+0x1bc>
		c_bar5 /= DIVIDE;
    5b46:	6d e0       	ldi	r22, 0x0D	; 13
    5b48:	70 e0       	ldi	r23, 0x00	; 0
    5b4a:	0e 94 6e 35 	call	0x6adc	; 0x6adc <__divmodhi4>
    5b4e:	70 93 12 01 	sts	0x0112, r23	; 0x800112 <c_bar5+0x1>
    5b52:	60 93 11 01 	sts	0x0111, r22	; 0x800111 <c_bar5>
    5b56:	09 c0       	rjmp	.+18     	; 0x5b6a <read_sa+0x1ce>
		else
		c_bar5 = 0;
    5b58:	10 92 12 01 	sts	0x0112, r1	; 0x800112 <c_bar5+0x1>
    5b5c:	10 92 11 01 	sts	0x0111, r1	; 0x800111 <c_bar5>
    5b60:	04 c0       	rjmp	.+8      	; 0x5b6a <read_sa+0x1ce>
	}
	else
		c_bar5 = 0;
    5b62:	10 92 12 01 	sts	0x0112, r1	; 0x800112 <c_bar5+0x1>
    5b66:	10 92 11 01 	sts	0x0111, r1	; 0x800111 <c_bar5>
	util_BitSet(PORTC,SA_STROBE);
    5b6a:	41 9a       	sbi	0x08, 1	; 8
    5b6c:	8f ec       	ldi	r24, 0xCF	; 207
    5b6e:	97 e0       	ldi	r25, 0x07	; 7
    5b70:	01 97       	sbiw	r24, 0x01	; 1
    5b72:	f1 f7       	brne	.-4      	; 0x5b70 <read_sa+0x1d4>
    5b74:	00 c0       	rjmp	.+0      	; 0x5b76 <read_sa+0x1da>
    5b76:	00 00       	nop
	_delay_ms(1);
	
	// read 6.25kHz
	util_BitClear(PORTC,SA_STROBE);
    5b78:	41 98       	cbi	0x08, 1	; 8
    5b7a:	8f ec       	ldi	r24, 0xCF	; 207
    5b7c:	97 e0       	ldi	r25, 0x07	; 7
    5b7e:	01 97       	sbiw	r24, 0x01	; 1
    5b80:	f1 f7       	brne	.-4      	; 0x5b7e <read_sa+0x1e2>
    5b82:	00 c0       	rjmp	.+0      	; 0x5b84 <read_sa+0x1e8>
    5b84:	00 00       	nop
	_delay_ms(1);
	temp = getADC(ADC_PIN);
    5b86:	80 e0       	ldi	r24, 0x00	; 0
    5b88:	0e 94 b4 2c 	call	0x5968	; 0x5968 <getADC>
	if(temp > OFFSET)
    5b8c:	81 3c       	cpi	r24, 0xC1	; 193
    5b8e:	91 05       	cpc	r25, r1
    5b90:	98 f0       	brcs	.+38     	; 0x5bb8 <read_sa+0x21c>
	{
		c_bar6 = (temp - OFFSET);
    5b92:	80 5c       	subi	r24, 0xC0	; 192
    5b94:	91 09       	sbc	r25, r1
		if(c_bar6 > DIVIDE)
    5b96:	8e 30       	cpi	r24, 0x0E	; 14
    5b98:	91 05       	cpc	r25, r1
    5b9a:	4c f0       	brlt	.+18     	; 0x5bae <read_sa+0x212>
		c_bar6 /= DIVIDE;
    5b9c:	6d e0       	ldi	r22, 0x0D	; 13
    5b9e:	70 e0       	ldi	r23, 0x00	; 0
    5ba0:	0e 94 6e 35 	call	0x6adc	; 0x6adc <__divmodhi4>
    5ba4:	70 93 07 01 	sts	0x0107, r23	; 0x800107 <c_bar6+0x1>
    5ba8:	60 93 06 01 	sts	0x0106, r22	; 0x800106 <c_bar6>
    5bac:	09 c0       	rjmp	.+18     	; 0x5bc0 <read_sa+0x224>
		else
		c_bar6 = 0;
    5bae:	10 92 07 01 	sts	0x0107, r1	; 0x800107 <c_bar6+0x1>
    5bb2:	10 92 06 01 	sts	0x0106, r1	; 0x800106 <c_bar6>
    5bb6:	04 c0       	rjmp	.+8      	; 0x5bc0 <read_sa+0x224>
	}
	else
		c_bar6 = 0;
    5bb8:	10 92 07 01 	sts	0x0107, r1	; 0x800107 <c_bar6+0x1>
    5bbc:	10 92 06 01 	sts	0x0106, r1	; 0x800106 <c_bar6>
	util_BitSet(PORTC,SA_STROBE);
    5bc0:	41 9a       	sbi	0x08, 1	; 8
    5bc2:	8f ec       	ldi	r24, 0xCF	; 207
    5bc4:	97 e0       	ldi	r25, 0x07	; 7
    5bc6:	01 97       	sbiw	r24, 0x01	; 1
    5bc8:	f1 f7       	brne	.-4      	; 0x5bc6 <read_sa+0x22a>
    5bca:	00 c0       	rjmp	.+0      	; 0x5bcc <read_sa+0x230>
    5bcc:	00 00       	nop
	_delay_ms(1);
	
	// read 16kHz
	util_BitClear(PORTC,SA_STROBE);
    5bce:	41 98       	cbi	0x08, 1	; 8
    5bd0:	8f ec       	ldi	r24, 0xCF	; 207
    5bd2:	97 e0       	ldi	r25, 0x07	; 7
    5bd4:	01 97       	sbiw	r24, 0x01	; 1
    5bd6:	f1 f7       	brne	.-4      	; 0x5bd4 <read_sa+0x238>
    5bd8:	00 c0       	rjmp	.+0      	; 0x5bda <read_sa+0x23e>
    5bda:	00 00       	nop
	_delay_ms(1);
	temp = getADC(ADC_PIN);
    5bdc:	80 e0       	ldi	r24, 0x00	; 0
    5bde:	0e 94 b4 2c 	call	0x5968	; 0x5968 <getADC>
	if(temp > OFFSET)
    5be2:	81 3c       	cpi	r24, 0xC1	; 193
    5be4:	91 05       	cpc	r25, r1
    5be6:	98 f0       	brcs	.+38     	; 0x5c0e <read_sa+0x272>
	{
		c_bar7 = (temp - OFFSET);
    5be8:	80 5c       	subi	r24, 0xC0	; 192
    5bea:	91 09       	sbc	r25, r1
		if(c_bar7 > DIVIDE)
    5bec:	8e 30       	cpi	r24, 0x0E	; 14
    5bee:	91 05       	cpc	r25, r1
    5bf0:	4c f0       	brlt	.+18     	; 0x5c04 <read_sa+0x268>
		c_bar7 /= DIVIDE;
    5bf2:	6d e0       	ldi	r22, 0x0D	; 13
    5bf4:	70 e0       	ldi	r23, 0x00	; 0
    5bf6:	0e 94 6e 35 	call	0x6adc	; 0x6adc <__divmodhi4>
    5bfa:	70 93 16 01 	sts	0x0116, r23	; 0x800116 <c_bar7+0x1>
    5bfe:	60 93 15 01 	sts	0x0115, r22	; 0x800115 <c_bar7>
    5c02:	09 c0       	rjmp	.+18     	; 0x5c16 <read_sa+0x27a>
		else
		c_bar7 = 0;
    5c04:	10 92 16 01 	sts	0x0116, r1	; 0x800116 <c_bar7+0x1>
    5c08:	10 92 15 01 	sts	0x0115, r1	; 0x800115 <c_bar7>
    5c0c:	04 c0       	rjmp	.+8      	; 0x5c16 <read_sa+0x27a>
	}
	else
		c_bar7 = 0;
    5c0e:	10 92 16 01 	sts	0x0116, r1	; 0x800116 <c_bar7+0x1>
    5c12:	10 92 15 01 	sts	0x0115, r1	; 0x800115 <c_bar7>
	util_BitSet(PORTC,SA_STROBE);
    5c16:	41 9a       	sbi	0x08, 1	; 8
    5c18:	8f ec       	ldi	r24, 0xCF	; 207
    5c1a:	97 e0       	ldi	r25, 0x07	; 7
    5c1c:	01 97       	sbiw	r24, 0x01	; 1
    5c1e:	f1 f7       	brne	.-4      	; 0x5c1c <read_sa+0x280>
    5c20:	00 c0       	rjmp	.+0      	; 0x5c22 <read_sa+0x286>
    5c22:	00 00       	nop
    5c24:	08 95       	ret

00005c26 <generate_colour_bar>:
}

// creating colour bar from provided adc data
// THIS IS COMMON ENGINE USED TO GENERATE ALL 7 BARS
void generate_colour_bar (int8_t c_start_row, int8_t c_end_row, int8_t c_bar)
{
    5c26:	0f 93       	push	r16
    5c28:	1f 93       	push	r17
    5c2a:	cf 93       	push	r28
    5c2c:	df 93       	push	r29
    5c2e:	08 2f       	mov	r16, r24
    5c30:	16 2f       	mov	r17, r22
    5c32:	d4 2f       	mov	r29, r20
    5c34:	40 34       	cpi	r20, 0x40	; 64
    5c36:	0c f0       	brlt	.+2      	; 0x5c3a <generate_colour_bar+0x14>
    5c38:	df e3       	ldi	r29, 0x3F	; 63
	if(c_bar > 63)
	{
		c_bar = 63;
	}
	util_BitClear(PORTB,OLED_DC); // SET OLED TO RECEIVE COMMAND
    5c3a:	28 98       	cbi	0x05, 0	; 5
	send_oled_data(0x22); // Enter the "draw rectangle mode" by execute the command 22h
    5c3c:	82 e2       	ldi	r24, 0x22	; 34
    5c3e:	0e 94 93 29 	call	0x5326	; 0x5326 <send_oled_data>
	send_oled_data(c_start_row);   //Set the starting row coordinates
    5c42:	80 2f       	mov	r24, r16
    5c44:	0e 94 93 29 	call	0x5326	; 0x5326 <send_oled_data>
	send_oled_data(0);   //Set the starting column coordinates,
    5c48:	80 e0       	ldi	r24, 0x00	; 0
    5c4a:	0e 94 93 29 	call	0x5326	; 0x5326 <send_oled_data>
	send_oled_data(c_end_row);  //Set the finishing row coordinates
    5c4e:	81 2f       	mov	r24, r17
    5c50:	0e 94 93 29 	call	0x5326	; 0x5326 <send_oled_data>
	send_oled_data(63 - c_bar);  //Set the finishing column coordinates
    5c54:	cf e3       	ldi	r28, 0x3F	; 63
    5c56:	cd 1b       	sub	r28, r29
    5c58:	8c 2f       	mov	r24, r28
    5c5a:	0e 94 93 29 	call	0x5326	; 0x5326 <send_oled_data>
	send_oled_data(0);   //Set the outline color C, B and A
    5c5e:	80 e0       	ldi	r24, 0x00	; 0
    5c60:	0e 94 93 29 	call	0x5326	; 0x5326 <send_oled_data>
	send_oled_data(0);
    5c64:	80 e0       	ldi	r24, 0x00	; 0
    5c66:	0e 94 93 29 	call	0x5326	; 0x5326 <send_oled_data>
	send_oled_data(0);
    5c6a:	80 e0       	ldi	r24, 0x00	; 0
    5c6c:	0e 94 93 29 	call	0x5326	; 0x5326 <send_oled_data>
	send_oled_data(0);   //Set the filled color C, B and A
    5c70:	80 e0       	ldi	r24, 0x00	; 0
    5c72:	0e 94 93 29 	call	0x5326	; 0x5326 <send_oled_data>
	send_oled_data(0);
    5c76:	80 e0       	ldi	r24, 0x00	; 0
    5c78:	0e 94 93 29 	call	0x5326	; 0x5326 <send_oled_data>
	send_oled_data(0);
    5c7c:	80 e0       	ldi	r24, 0x00	; 0
    5c7e:	0e 94 93 29 	call	0x5326	; 0x5326 <send_oled_data>
    5c82:	8f e9       	ldi	r24, 0x9F	; 159
    5c84:	9f e0       	ldi	r25, 0x0F	; 15
    5c86:	01 97       	sbiw	r24, 0x01	; 1
    5c88:	f1 f7       	brne	.-4      	; 0x5c86 <generate_colour_bar+0x60>
    5c8a:	00 c0       	rjmp	.+0      	; 0x5c8c <generate_colour_bar+0x66>
    5c8c:	00 00       	nop
	_delay_ms(2);
	
	if(c_bar <= 35)
    5c8e:	d4 32       	cpi	r29, 0x24	; 36
    5c90:	44 f5       	brge	.+80     	; 0x5ce2 <generate_colour_bar+0xbc>
	{
		send_oled_data(0x22); // Enter the "draw rectangle mode" by execute the command 22h
    5c92:	82 e2       	ldi	r24, 0x22	; 34
    5c94:	0e 94 93 29 	call	0x5326	; 0x5326 <send_oled_data>
		send_oled_data(c_start_row);   //Set the starting row coordinates
    5c98:	80 2f       	mov	r24, r16
    5c9a:	0e 94 93 29 	call	0x5326	; 0x5326 <send_oled_data>
		send_oled_data(63 - c_bar);   //Set the starting column coordinates,
    5c9e:	8c 2f       	mov	r24, r28
    5ca0:	0e 94 93 29 	call	0x5326	; 0x5326 <send_oled_data>
		send_oled_data(c_end_row);  //Set the finishing row coordinates
    5ca4:	81 2f       	mov	r24, r17
    5ca6:	0e 94 93 29 	call	0x5326	; 0x5326 <send_oled_data>
		send_oled_data(63);  //Set the finishing column coordinates
    5caa:	8f e3       	ldi	r24, 0x3F	; 63
    5cac:	0e 94 93 29 	call	0x5326	; 0x5326 <send_oled_data>
		send_oled_data(0);   //Set the outline color C, B and A
    5cb0:	80 e0       	ldi	r24, 0x00	; 0
    5cb2:	0e 94 93 29 	call	0x5326	; 0x5326 <send_oled_data>
		send_oled_data(0xff);
    5cb6:	8f ef       	ldi	r24, 0xFF	; 255
    5cb8:	0e 94 93 29 	call	0x5326	; 0x5326 <send_oled_data>
		send_oled_data(0);
    5cbc:	80 e0       	ldi	r24, 0x00	; 0
    5cbe:	0e 94 93 29 	call	0x5326	; 0x5326 <send_oled_data>
		send_oled_data(0);   //Set the filled color C, B and A
    5cc2:	80 e0       	ldi	r24, 0x00	; 0
    5cc4:	0e 94 93 29 	call	0x5326	; 0x5326 <send_oled_data>
		send_oled_data(0xff);
    5cc8:	8f ef       	ldi	r24, 0xFF	; 255
    5cca:	0e 94 93 29 	call	0x5326	; 0x5326 <send_oled_data>
		send_oled_data(0);
    5cce:	80 e0       	ldi	r24, 0x00	; 0
    5cd0:	0e 94 93 29 	call	0x5326	; 0x5326 <send_oled_data>
    5cd4:	8f e9       	ldi	r24, 0x9F	; 159
    5cd6:	9f e0       	ldi	r25, 0x0F	; 15
    5cd8:	01 97       	sbiw	r24, 0x01	; 1
    5cda:	f1 f7       	brne	.-4      	; 0x5cd8 <generate_colour_bar+0xb2>
    5cdc:	00 c0       	rjmp	.+0      	; 0x5cde <generate_colour_bar+0xb8>
    5cde:	00 00       	nop
    5ce0:	77 c0       	rjmp	.+238    	; 0x5dd0 <generate_colour_bar+0x1aa>
	}
	else
	{
		
		// MAKE LOWER BAR GREEN FROM ROW 63 TO 29
		send_oled_data(0x22); // Enter the "draw rectangle mode" by execute the command 22h
    5ce2:	82 e2       	ldi	r24, 0x22	; 34
    5ce4:	0e 94 93 29 	call	0x5326	; 0x5326 <send_oled_data>
		send_oled_data(c_start_row);   //Set the starting row coordinates
    5ce8:	80 2f       	mov	r24, r16
    5cea:	0e 94 93 29 	call	0x5326	; 0x5326 <send_oled_data>
		send_oled_data(63 - 35);   //Set the starting column coordinates,
    5cee:	8c e1       	ldi	r24, 0x1C	; 28
    5cf0:	0e 94 93 29 	call	0x5326	; 0x5326 <send_oled_data>
		send_oled_data(c_end_row);  //Set the finishing row coordinates
    5cf4:	81 2f       	mov	r24, r17
    5cf6:	0e 94 93 29 	call	0x5326	; 0x5326 <send_oled_data>
		send_oled_data(63);  //Set the finishing column coordinates
    5cfa:	8f e3       	ldi	r24, 0x3F	; 63
    5cfc:	0e 94 93 29 	call	0x5326	; 0x5326 <send_oled_data>
		send_oled_data(0);   //Set the outline color C, B and A
    5d00:	80 e0       	ldi	r24, 0x00	; 0
    5d02:	0e 94 93 29 	call	0x5326	; 0x5326 <send_oled_data>
		send_oled_data(0xff);
    5d06:	8f ef       	ldi	r24, 0xFF	; 255
    5d08:	0e 94 93 29 	call	0x5326	; 0x5326 <send_oled_data>
		send_oled_data(0);
    5d0c:	80 e0       	ldi	r24, 0x00	; 0
    5d0e:	0e 94 93 29 	call	0x5326	; 0x5326 <send_oled_data>
		send_oled_data(0);   //Set the filled color C, B and A
    5d12:	80 e0       	ldi	r24, 0x00	; 0
    5d14:	0e 94 93 29 	call	0x5326	; 0x5326 <send_oled_data>
		send_oled_data(0xff);
    5d18:	8f ef       	ldi	r24, 0xFF	; 255
    5d1a:	0e 94 93 29 	call	0x5326	; 0x5326 <send_oled_data>
		send_oled_data(0);
    5d1e:	80 e0       	ldi	r24, 0x00	; 0
    5d20:	0e 94 93 29 	call	0x5326	; 0x5326 <send_oled_data>
    5d24:	8f e9       	ldi	r24, 0x9F	; 159
    5d26:	9f e0       	ldi	r25, 0x0F	; 15
    5d28:	01 97       	sbiw	r24, 0x01	; 1
    5d2a:	f1 f7       	brne	.-4      	; 0x5d28 <generate_colour_bar+0x102>
    5d2c:	00 c0       	rjmp	.+0      	; 0x5d2e <generate_colour_bar+0x108>
    5d2e:	00 00       	nop
		_delay_ms(2);
		
		// MAKE MIDDLE PORTION OF BAR YELLOW FROM ROW 29 TO  10
		send_oled_data(0x22); // Enter the "draw rectangle mode" by execute the command 22h
    5d30:	82 e2       	ldi	r24, 0x22	; 34
    5d32:	0e 94 93 29 	call	0x5326	; 0x5326 <send_oled_data>
		send_oled_data(c_start_row);   //Set the starting row coordinates
    5d36:	80 2f       	mov	r24, r16
    5d38:	0e 94 93 29 	call	0x5326	; 0x5326 <send_oled_data>
		send_oled_data(63 - c_bar);   //Set the starting column coordinates,
    5d3c:	8c 2f       	mov	r24, r28
    5d3e:	0e 94 93 29 	call	0x5326	; 0x5326 <send_oled_data>
		send_oled_data(c_end_row);  //Set the finishing row coordinates
    5d42:	81 2f       	mov	r24, r17
    5d44:	0e 94 93 29 	call	0x5326	; 0x5326 <send_oled_data>
		send_oled_data(29);  //Set the finishing column coordinates
    5d48:	8d e1       	ldi	r24, 0x1D	; 29
    5d4a:	0e 94 93 29 	call	0x5326	; 0x5326 <send_oled_data>
		send_oled_data(0xff);   //Set the outline color C, B and A
    5d4e:	8f ef       	ldi	r24, 0xFF	; 255
    5d50:	0e 94 93 29 	call	0x5326	; 0x5326 <send_oled_data>
		send_oled_data(0xff);
    5d54:	8f ef       	ldi	r24, 0xFF	; 255
    5d56:	0e 94 93 29 	call	0x5326	; 0x5326 <send_oled_data>
		send_oled_data(0);
    5d5a:	80 e0       	ldi	r24, 0x00	; 0
    5d5c:	0e 94 93 29 	call	0x5326	; 0x5326 <send_oled_data>
		send_oled_data(0xff);   //Set the filled color C, B and A
    5d60:	8f ef       	ldi	r24, 0xFF	; 255
    5d62:	0e 94 93 29 	call	0x5326	; 0x5326 <send_oled_data>
		send_oled_data(0xff);
    5d66:	8f ef       	ldi	r24, 0xFF	; 255
    5d68:	0e 94 93 29 	call	0x5326	; 0x5326 <send_oled_data>
		send_oled_data(0);
    5d6c:	80 e0       	ldi	r24, 0x00	; 0
    5d6e:	0e 94 93 29 	call	0x5326	; 0x5326 <send_oled_data>
    5d72:	8f e9       	ldi	r24, 0x9F	; 159
    5d74:	9f e0       	ldi	r25, 0x0F	; 15
    5d76:	01 97       	sbiw	r24, 0x01	; 1
    5d78:	f1 f7       	brne	.-4      	; 0x5d76 <generate_colour_bar+0x150>
    5d7a:	00 c0       	rjmp	.+0      	; 0x5d7c <generate_colour_bar+0x156>
    5d7c:	00 00       	nop
		_delay_ms(2);
		
		if(c_bar > 54)  // it is above 54 so show green yellow & red all three colours
    5d7e:	d7 33       	cpi	r29, 0x37	; 55
    5d80:	3c f1       	brlt	.+78     	; 0x5dd0 <generate_colour_bar+0x1aa>
		{
			// MAKE TOP PORTION OF BAR RED FROM ROW 54 TO 64
			send_oled_data(0x22); // Enter the "draw rectangle mode" by execute the command 22h
    5d82:	82 e2       	ldi	r24, 0x22	; 34
    5d84:	0e 94 93 29 	call	0x5326	; 0x5326 <send_oled_data>
			send_oled_data(c_start_row);   //Set the starting row coordinates
    5d88:	80 2f       	mov	r24, r16
    5d8a:	0e 94 93 29 	call	0x5326	; 0x5326 <send_oled_data>
			send_oled_data(63 - c_bar);   //Set the starting column coordinates,
    5d8e:	8c 2f       	mov	r24, r28
    5d90:	0e 94 93 29 	call	0x5326	; 0x5326 <send_oled_data>
			send_oled_data(c_end_row);  //Set the finishing row coordinates
    5d94:	81 2f       	mov	r24, r17
    5d96:	0e 94 93 29 	call	0x5326	; 0x5326 <send_oled_data>
			send_oled_data(10);  //Set the finishing column coordinates
    5d9a:	8a e0       	ldi	r24, 0x0A	; 10
    5d9c:	0e 94 93 29 	call	0x5326	; 0x5326 <send_oled_data>
			send_oled_data(0xff);   //Set the outline color C, B and A
    5da0:	8f ef       	ldi	r24, 0xFF	; 255
    5da2:	0e 94 93 29 	call	0x5326	; 0x5326 <send_oled_data>
			send_oled_data(0);
    5da6:	80 e0       	ldi	r24, 0x00	; 0
    5da8:	0e 94 93 29 	call	0x5326	; 0x5326 <send_oled_data>
			send_oled_data(0);
    5dac:	80 e0       	ldi	r24, 0x00	; 0
    5dae:	0e 94 93 29 	call	0x5326	; 0x5326 <send_oled_data>
			send_oled_data(0xff);   //Set the filled color C, B and A
    5db2:	8f ef       	ldi	r24, 0xFF	; 255
    5db4:	0e 94 93 29 	call	0x5326	; 0x5326 <send_oled_data>
			send_oled_data(0);
    5db8:	80 e0       	ldi	r24, 0x00	; 0
    5dba:	0e 94 93 29 	call	0x5326	; 0x5326 <send_oled_data>
			send_oled_data(0);
    5dbe:	80 e0       	ldi	r24, 0x00	; 0
    5dc0:	0e 94 93 29 	call	0x5326	; 0x5326 <send_oled_data>
    5dc4:	8f e9       	ldi	r24, 0x9F	; 159
    5dc6:	9f e0       	ldi	r25, 0x0F	; 15
    5dc8:	01 97       	sbiw	r24, 0x01	; 1
    5dca:	f1 f7       	brne	.-4      	; 0x5dc8 <generate_colour_bar+0x1a2>
    5dcc:	00 c0       	rjmp	.+0      	; 0x5dce <generate_colour_bar+0x1a8>
    5dce:	00 00       	nop
		}
		
		
		
	}
}
    5dd0:	df 91       	pop	r29
    5dd2:	cf 91       	pop	r28
    5dd4:	1f 91       	pop	r17
    5dd6:	0f 91       	pop	r16
    5dd8:	08 95       	ret

00005dda <display_green_yellow_red_bars>:
	return ADC ;
}

void display_green_yellow_red_bars (void)
{
	generate_colour_bar(bar1_start_row, bar1_end_row, c_bar1);
    5dda:	40 91 08 01 	lds	r20, 0x0108	; 0x800108 <c_bar1>
    5dde:	6a e0       	ldi	r22, 0x0A	; 10
    5de0:	80 e0       	ldi	r24, 0x00	; 0
    5de2:	0e 94 13 2e 	call	0x5c26	; 0x5c26 <generate_colour_bar>
	generate_colour_bar(bar2_start_row, bar2_end_row, c_bar2);
    5de6:	40 91 0f 01 	lds	r20, 0x010F	; 0x80010f <c_bar2>
    5dea:	68 e1       	ldi	r22, 0x18	; 24
    5dec:	8e e0       	ldi	r24, 0x0E	; 14
    5dee:	0e 94 13 2e 	call	0x5c26	; 0x5c26 <generate_colour_bar>
	generate_colour_bar(bar3_start_row, bar3_end_row, c_bar3);
    5df2:	40 91 13 01 	lds	r20, 0x0113	; 0x800113 <c_bar3>
    5df6:	66 e2       	ldi	r22, 0x26	; 38
    5df8:	8c e1       	ldi	r24, 0x1C	; 28
    5dfa:	0e 94 13 2e 	call	0x5c26	; 0x5c26 <generate_colour_bar>
	generate_colour_bar(bar4_start_row, bar4_end_row, c_bar4);
    5dfe:	40 91 0a 01 	lds	r20, 0x010A	; 0x80010a <c_bar4>
    5e02:	64 e3       	ldi	r22, 0x34	; 52
    5e04:	8a e2       	ldi	r24, 0x2A	; 42
    5e06:	0e 94 13 2e 	call	0x5c26	; 0x5c26 <generate_colour_bar>
	generate_colour_bar(bar5_start_row, bar5_end_row, c_bar5);
    5e0a:	40 91 11 01 	lds	r20, 0x0111	; 0x800111 <c_bar5>
    5e0e:	62 e4       	ldi	r22, 0x42	; 66
    5e10:	88 e3       	ldi	r24, 0x38	; 56
    5e12:	0e 94 13 2e 	call	0x5c26	; 0x5c26 <generate_colour_bar>
	generate_colour_bar(bar6_start_row, bar6_end_row, c_bar6);
    5e16:	40 91 06 01 	lds	r20, 0x0106	; 0x800106 <c_bar6>
    5e1a:	60 e5       	ldi	r22, 0x50	; 80
    5e1c:	86 e4       	ldi	r24, 0x46	; 70
    5e1e:	0e 94 13 2e 	call	0x5c26	; 0x5c26 <generate_colour_bar>
	generate_colour_bar(bar7_start_row, bar7_end_row, c_bar7);
    5e22:	40 91 15 01 	lds	r20, 0x0115	; 0x800115 <c_bar7>
    5e26:	6e e5       	ldi	r22, 0x5E	; 94
    5e28:	84 e5       	ldi	r24, 0x54	; 84
    5e2a:	0e 94 13 2e 	call	0x5c26	; 0x5c26 <generate_colour_bar>
    5e2e:	08 95       	ret

00005e30 <display_thin_blue_bars>:
		
	}
}

void display_thin_blue_bars (void)
{
    5e30:	0f 93       	push	r16
    5e32:	1f 93       	push	r17
    5e34:	cf 93       	push	r28
	
	util_BitClear(PORTB,OLED_DC); // SET OLED TO RECEIVE COMMAND
    5e36:	28 98       	cbi	0x05, 0	; 5
	send_oled_data(0x22); // Enter the "draw rectangle mode" by execute the command 22h
    5e38:	82 e2       	ldi	r24, 0x22	; 34
    5e3a:	0e 94 93 29 	call	0x5326	; 0x5326 <send_oled_data>
	send_oled_data(bar1_start_row+3);   //Set the starting row coordinates
    5e3e:	83 e0       	ldi	r24, 0x03	; 3
    5e40:	0e 94 93 29 	call	0x5326	; 0x5326 <send_oled_data>
	send_oled_data(0);   //Set the starting column coordinates,
    5e44:	80 e0       	ldi	r24, 0x00	; 0
    5e46:	0e 94 93 29 	call	0x5326	; 0x5326 <send_oled_data>
	send_oled_data(bar1_end_row-3);  //Set the finishing row coordinates
    5e4a:	87 e0       	ldi	r24, 0x07	; 7
    5e4c:	0e 94 93 29 	call	0x5326	; 0x5326 <send_oled_data>
	send_oled_data(63 - c_bar1);  //Set the finishing column coordinates
    5e50:	08 e0       	ldi	r16, 0x08	; 8
    5e52:	11 e0       	ldi	r17, 0x01	; 1
    5e54:	cf e3       	ldi	r28, 0x3F	; 63
    5e56:	f8 01       	movw	r30, r16
    5e58:	80 81       	ld	r24, Z
    5e5a:	fc 2f       	mov	r31, r28
    5e5c:	f8 1b       	sub	r31, r24
    5e5e:	8f 2f       	mov	r24, r31
    5e60:	0e 94 93 29 	call	0x5326	; 0x5326 <send_oled_data>
	send_oled_data(0);   //Set the outline color C, B and A
    5e64:	80 e0       	ldi	r24, 0x00	; 0
    5e66:	0e 94 93 29 	call	0x5326	; 0x5326 <send_oled_data>
	send_oled_data(0);
    5e6a:	80 e0       	ldi	r24, 0x00	; 0
    5e6c:	0e 94 93 29 	call	0x5326	; 0x5326 <send_oled_data>
	send_oled_data(0);
    5e70:	80 e0       	ldi	r24, 0x00	; 0
    5e72:	0e 94 93 29 	call	0x5326	; 0x5326 <send_oled_data>
	send_oled_data(0);   //Set the filled color C, B and A
    5e76:	80 e0       	ldi	r24, 0x00	; 0
    5e78:	0e 94 93 29 	call	0x5326	; 0x5326 <send_oled_data>
	send_oled_data(0);
    5e7c:	80 e0       	ldi	r24, 0x00	; 0
    5e7e:	0e 94 93 29 	call	0x5326	; 0x5326 <send_oled_data>
	send_oled_data(0);
    5e82:	80 e0       	ldi	r24, 0x00	; 0
    5e84:	0e 94 93 29 	call	0x5326	; 0x5326 <send_oled_data>
    5e88:	8f e9       	ldi	r24, 0x9F	; 159
    5e8a:	9f e0       	ldi	r25, 0x0F	; 15
    5e8c:	01 97       	sbiw	r24, 0x01	; 1
    5e8e:	f1 f7       	brne	.-4      	; 0x5e8c <display_thin_blue_bars+0x5c>
    5e90:	00 c0       	rjmp	.+0      	; 0x5e92 <display_thin_blue_bars+0x62>
    5e92:	00 00       	nop
	_delay_ms(2);
	
	send_oled_data(0x22); // Enter the "draw rectangle mode" by execute the command 22h
    5e94:	82 e2       	ldi	r24, 0x22	; 34
    5e96:	0e 94 93 29 	call	0x5326	; 0x5326 <send_oled_data>
	send_oled_data(bar1_start_row+3);   //Set the starting row coordinates
    5e9a:	83 e0       	ldi	r24, 0x03	; 3
    5e9c:	0e 94 93 29 	call	0x5326	; 0x5326 <send_oled_data>
	send_oled_data(63 - c_bar1);   //Set the starting column coordinates,
    5ea0:	f8 01       	movw	r30, r16
    5ea2:	80 81       	ld	r24, Z
    5ea4:	fc 2f       	mov	r31, r28
    5ea6:	f8 1b       	sub	r31, r24
    5ea8:	8f 2f       	mov	r24, r31
    5eaa:	0e 94 93 29 	call	0x5326	; 0x5326 <send_oled_data>
	send_oled_data(bar1_end_row-3);  //Set the finishing row coordinates
    5eae:	87 e0       	ldi	r24, 0x07	; 7
    5eb0:	0e 94 93 29 	call	0x5326	; 0x5326 <send_oled_data>
	send_oled_data(63);  //Set the finishing column coordinates
    5eb4:	8f e3       	ldi	r24, 0x3F	; 63
    5eb6:	0e 94 93 29 	call	0x5326	; 0x5326 <send_oled_data>
	send_oled_data(0);   //Set the outline color C, B and A
    5eba:	80 e0       	ldi	r24, 0x00	; 0
    5ebc:	0e 94 93 29 	call	0x5326	; 0x5326 <send_oled_data>
	send_oled_data(0);
    5ec0:	80 e0       	ldi	r24, 0x00	; 0
    5ec2:	0e 94 93 29 	call	0x5326	; 0x5326 <send_oled_data>
	send_oled_data(0xff);
    5ec6:	8f ef       	ldi	r24, 0xFF	; 255
    5ec8:	0e 94 93 29 	call	0x5326	; 0x5326 <send_oled_data>
	send_oled_data(0);   //Set the filled color C, B and A
    5ecc:	80 e0       	ldi	r24, 0x00	; 0
    5ece:	0e 94 93 29 	call	0x5326	; 0x5326 <send_oled_data>
	send_oled_data(0);
    5ed2:	80 e0       	ldi	r24, 0x00	; 0
    5ed4:	0e 94 93 29 	call	0x5326	; 0x5326 <send_oled_data>
	send_oled_data(0xff);
    5ed8:	8f ef       	ldi	r24, 0xFF	; 255
    5eda:	0e 94 93 29 	call	0x5326	; 0x5326 <send_oled_data>
    5ede:	8f e9       	ldi	r24, 0x9F	; 159
    5ee0:	9f e0       	ldi	r25, 0x0F	; 15
    5ee2:	01 97       	sbiw	r24, 0x01	; 1
    5ee4:	f1 f7       	brne	.-4      	; 0x5ee2 <display_thin_blue_bars+0xb2>
    5ee6:	00 c0       	rjmp	.+0      	; 0x5ee8 <display_thin_blue_bars+0xb8>
    5ee8:	00 00       	nop
	_delay_ms(2);
	//===========================
	
	util_BitClear(PORTB,OLED_DC);  // SET OLED TO RECEIVE COMMAND
    5eea:	28 98       	cbi	0x05, 0	; 5
	send_oled_data(0x22); // Enter the "draw rectangle mode" by execute the command 22h
    5eec:	82 e2       	ldi	r24, 0x22	; 34
    5eee:	0e 94 93 29 	call	0x5326	; 0x5326 <send_oled_data>
	send_oled_data(bar2_start_row+3);   //Set the starting row coordinates
    5ef2:	81 e1       	ldi	r24, 0x11	; 17
    5ef4:	0e 94 93 29 	call	0x5326	; 0x5326 <send_oled_data>
	send_oled_data(0);   //Set the starting column coordinates,
    5ef8:	80 e0       	ldi	r24, 0x00	; 0
    5efa:	0e 94 93 29 	call	0x5326	; 0x5326 <send_oled_data>
	send_oled_data(bar2_end_row-3);  //Set the finishing row coordinates
    5efe:	85 e1       	ldi	r24, 0x15	; 21
    5f00:	0e 94 93 29 	call	0x5326	; 0x5326 <send_oled_data>
	send_oled_data(63 - c_bar2);  //Set the finishing column coordinates
    5f04:	0f e0       	ldi	r16, 0x0F	; 15
    5f06:	11 e0       	ldi	r17, 0x01	; 1
    5f08:	f8 01       	movw	r30, r16
    5f0a:	80 81       	ld	r24, Z
    5f0c:	fc 2f       	mov	r31, r28
    5f0e:	f8 1b       	sub	r31, r24
    5f10:	8f 2f       	mov	r24, r31
    5f12:	0e 94 93 29 	call	0x5326	; 0x5326 <send_oled_data>
	send_oled_data(0);   //Set the outline color C, B and A
    5f16:	80 e0       	ldi	r24, 0x00	; 0
    5f18:	0e 94 93 29 	call	0x5326	; 0x5326 <send_oled_data>
	send_oled_data(0);
    5f1c:	80 e0       	ldi	r24, 0x00	; 0
    5f1e:	0e 94 93 29 	call	0x5326	; 0x5326 <send_oled_data>
	send_oled_data(0);
    5f22:	80 e0       	ldi	r24, 0x00	; 0
    5f24:	0e 94 93 29 	call	0x5326	; 0x5326 <send_oled_data>
	send_oled_data(0);   //Set the filled color C, B and A
    5f28:	80 e0       	ldi	r24, 0x00	; 0
    5f2a:	0e 94 93 29 	call	0x5326	; 0x5326 <send_oled_data>
	send_oled_data(0);
    5f2e:	80 e0       	ldi	r24, 0x00	; 0
    5f30:	0e 94 93 29 	call	0x5326	; 0x5326 <send_oled_data>
	send_oled_data(0);
    5f34:	80 e0       	ldi	r24, 0x00	; 0
    5f36:	0e 94 93 29 	call	0x5326	; 0x5326 <send_oled_data>
    5f3a:	8f e9       	ldi	r24, 0x9F	; 159
    5f3c:	9f e0       	ldi	r25, 0x0F	; 15
    5f3e:	01 97       	sbiw	r24, 0x01	; 1
    5f40:	f1 f7       	brne	.-4      	; 0x5f3e <display_thin_blue_bars+0x10e>
    5f42:	00 c0       	rjmp	.+0      	; 0x5f44 <display_thin_blue_bars+0x114>
    5f44:	00 00       	nop
	_delay_ms(2);
	
	send_oled_data(0x22); // Enter the "draw rectangle mode" by execute the command 22h
    5f46:	82 e2       	ldi	r24, 0x22	; 34
    5f48:	0e 94 93 29 	call	0x5326	; 0x5326 <send_oled_data>
	send_oled_data(bar2_start_row+3);   //Set the starting row coordinates
    5f4c:	81 e1       	ldi	r24, 0x11	; 17
    5f4e:	0e 94 93 29 	call	0x5326	; 0x5326 <send_oled_data>
	send_oled_data(63 - c_bar2);   //Set the starting column coordinates,
    5f52:	f8 01       	movw	r30, r16
    5f54:	80 81       	ld	r24, Z
    5f56:	fc 2f       	mov	r31, r28
    5f58:	f8 1b       	sub	r31, r24
    5f5a:	8f 2f       	mov	r24, r31
    5f5c:	0e 94 93 29 	call	0x5326	; 0x5326 <send_oled_data>
	send_oled_data(bar2_end_row-3);  //Set the finishing row coordinates
    5f60:	85 e1       	ldi	r24, 0x15	; 21
    5f62:	0e 94 93 29 	call	0x5326	; 0x5326 <send_oled_data>
	send_oled_data(63);  //Set the finishing column coordinates
    5f66:	8f e3       	ldi	r24, 0x3F	; 63
    5f68:	0e 94 93 29 	call	0x5326	; 0x5326 <send_oled_data>
	send_oled_data(0);   //Set the outline color C, B and A
    5f6c:	80 e0       	ldi	r24, 0x00	; 0
    5f6e:	0e 94 93 29 	call	0x5326	; 0x5326 <send_oled_data>
	send_oled_data(0);
    5f72:	80 e0       	ldi	r24, 0x00	; 0
    5f74:	0e 94 93 29 	call	0x5326	; 0x5326 <send_oled_data>
	send_oled_data(0xff);
    5f78:	8f ef       	ldi	r24, 0xFF	; 255
    5f7a:	0e 94 93 29 	call	0x5326	; 0x5326 <send_oled_data>
	send_oled_data(0);   //Set the filled color C, B and A
    5f7e:	80 e0       	ldi	r24, 0x00	; 0
    5f80:	0e 94 93 29 	call	0x5326	; 0x5326 <send_oled_data>
	send_oled_data(0);
    5f84:	80 e0       	ldi	r24, 0x00	; 0
    5f86:	0e 94 93 29 	call	0x5326	; 0x5326 <send_oled_data>
	send_oled_data(0xff);
    5f8a:	8f ef       	ldi	r24, 0xFF	; 255
    5f8c:	0e 94 93 29 	call	0x5326	; 0x5326 <send_oled_data>
    5f90:	8f e9       	ldi	r24, 0x9F	; 159
    5f92:	9f e0       	ldi	r25, 0x0F	; 15
    5f94:	01 97       	sbiw	r24, 0x01	; 1
    5f96:	f1 f7       	brne	.-4      	; 0x5f94 <display_thin_blue_bars+0x164>
    5f98:	00 c0       	rjmp	.+0      	; 0x5f9a <display_thin_blue_bars+0x16a>
    5f9a:	00 00       	nop
	_delay_ms(2);
	//===============================
	
	util_BitClear(PORTB,OLED_DC);  // SET OLED TO RECEIVE COMMAND
    5f9c:	28 98       	cbi	0x05, 0	; 5
	send_oled_data(0x22); // Enter the "draw rectangle mode" by execute the command 22h
    5f9e:	82 e2       	ldi	r24, 0x22	; 34
    5fa0:	0e 94 93 29 	call	0x5326	; 0x5326 <send_oled_data>
	send_oled_data(bar3_start_row+3);   //Set the starting row coordinates
    5fa4:	8f e1       	ldi	r24, 0x1F	; 31
    5fa6:	0e 94 93 29 	call	0x5326	; 0x5326 <send_oled_data>
	send_oled_data(0);   //Set the starting column coordinates,
    5faa:	80 e0       	ldi	r24, 0x00	; 0
    5fac:	0e 94 93 29 	call	0x5326	; 0x5326 <send_oled_data>
	send_oled_data(bar3_end_row-3);  //Set the finishing row coordinates
    5fb0:	83 e2       	ldi	r24, 0x23	; 35
    5fb2:	0e 94 93 29 	call	0x5326	; 0x5326 <send_oled_data>
	send_oled_data(63 - c_bar3);  //Set the finishing column coordinates
    5fb6:	03 e1       	ldi	r16, 0x13	; 19
    5fb8:	11 e0       	ldi	r17, 0x01	; 1
    5fba:	f8 01       	movw	r30, r16
    5fbc:	80 81       	ld	r24, Z
    5fbe:	fc 2f       	mov	r31, r28
    5fc0:	f8 1b       	sub	r31, r24
    5fc2:	8f 2f       	mov	r24, r31
    5fc4:	0e 94 93 29 	call	0x5326	; 0x5326 <send_oled_data>
	send_oled_data(0);   //Set the outline color C, B and A
    5fc8:	80 e0       	ldi	r24, 0x00	; 0
    5fca:	0e 94 93 29 	call	0x5326	; 0x5326 <send_oled_data>
	send_oled_data(0);
    5fce:	80 e0       	ldi	r24, 0x00	; 0
    5fd0:	0e 94 93 29 	call	0x5326	; 0x5326 <send_oled_data>
	send_oled_data(0);
    5fd4:	80 e0       	ldi	r24, 0x00	; 0
    5fd6:	0e 94 93 29 	call	0x5326	; 0x5326 <send_oled_data>
	send_oled_data(0);   //Set the filled color C, B and A
    5fda:	80 e0       	ldi	r24, 0x00	; 0
    5fdc:	0e 94 93 29 	call	0x5326	; 0x5326 <send_oled_data>
	send_oled_data(0);
    5fe0:	80 e0       	ldi	r24, 0x00	; 0
    5fe2:	0e 94 93 29 	call	0x5326	; 0x5326 <send_oled_data>
	send_oled_data(0);
    5fe6:	80 e0       	ldi	r24, 0x00	; 0
    5fe8:	0e 94 93 29 	call	0x5326	; 0x5326 <send_oled_data>
    5fec:	8f e9       	ldi	r24, 0x9F	; 159
    5fee:	9f e0       	ldi	r25, 0x0F	; 15
    5ff0:	01 97       	sbiw	r24, 0x01	; 1
    5ff2:	f1 f7       	brne	.-4      	; 0x5ff0 <display_thin_blue_bars+0x1c0>
    5ff4:	00 c0       	rjmp	.+0      	; 0x5ff6 <display_thin_blue_bars+0x1c6>
    5ff6:	00 00       	nop
	_delay_ms(2);
	
	send_oled_data(0x22); // Enter the "draw rectangle mode" by execute the command 22h
    5ff8:	82 e2       	ldi	r24, 0x22	; 34
    5ffa:	0e 94 93 29 	call	0x5326	; 0x5326 <send_oled_data>
	send_oled_data(bar3_start_row+3);   //Set the starting row coordinates
    5ffe:	8f e1       	ldi	r24, 0x1F	; 31
    6000:	0e 94 93 29 	call	0x5326	; 0x5326 <send_oled_data>
	send_oled_data(63 - c_bar3);   //Set the starting column coordinates,
    6004:	f8 01       	movw	r30, r16
    6006:	80 81       	ld	r24, Z
    6008:	fc 2f       	mov	r31, r28
    600a:	f8 1b       	sub	r31, r24
    600c:	8f 2f       	mov	r24, r31
    600e:	0e 94 93 29 	call	0x5326	; 0x5326 <send_oled_data>
	send_oled_data(bar3_end_row-3);  //Set the finishing row coordinates
    6012:	83 e2       	ldi	r24, 0x23	; 35
    6014:	0e 94 93 29 	call	0x5326	; 0x5326 <send_oled_data>
	send_oled_data(63);  //Set the finishing column coordinates
    6018:	8f e3       	ldi	r24, 0x3F	; 63
    601a:	0e 94 93 29 	call	0x5326	; 0x5326 <send_oled_data>
	send_oled_data(0);   //Set the outline color C, B and A
    601e:	80 e0       	ldi	r24, 0x00	; 0
    6020:	0e 94 93 29 	call	0x5326	; 0x5326 <send_oled_data>
	send_oled_data(0);
    6024:	80 e0       	ldi	r24, 0x00	; 0
    6026:	0e 94 93 29 	call	0x5326	; 0x5326 <send_oled_data>
	send_oled_data(0xff);
    602a:	8f ef       	ldi	r24, 0xFF	; 255
    602c:	0e 94 93 29 	call	0x5326	; 0x5326 <send_oled_data>
	send_oled_data(0);   //Set the filled color C, B and A
    6030:	80 e0       	ldi	r24, 0x00	; 0
    6032:	0e 94 93 29 	call	0x5326	; 0x5326 <send_oled_data>
	send_oled_data(0);
    6036:	80 e0       	ldi	r24, 0x00	; 0
    6038:	0e 94 93 29 	call	0x5326	; 0x5326 <send_oled_data>
	send_oled_data(0xff);
    603c:	8f ef       	ldi	r24, 0xFF	; 255
    603e:	0e 94 93 29 	call	0x5326	; 0x5326 <send_oled_data>
    6042:	8f e9       	ldi	r24, 0x9F	; 159
    6044:	9f e0       	ldi	r25, 0x0F	; 15
    6046:	01 97       	sbiw	r24, 0x01	; 1
    6048:	f1 f7       	brne	.-4      	; 0x6046 <display_thin_blue_bars+0x216>
    604a:	00 c0       	rjmp	.+0      	; 0x604c <display_thin_blue_bars+0x21c>
    604c:	00 00       	nop
	_delay_ms(2);
	//==========================
	
	util_BitClear(PORTB,OLED_DC);   // SET OLED TO RECEIVE COMMAND
    604e:	28 98       	cbi	0x05, 0	; 5
	send_oled_data(0x22); // Enter the "draw rectangle mode" by execute the command 22h
    6050:	82 e2       	ldi	r24, 0x22	; 34
    6052:	0e 94 93 29 	call	0x5326	; 0x5326 <send_oled_data>
	send_oled_data(bar4_start_row+3);   //Set the starting row coordinates
    6056:	8d e2       	ldi	r24, 0x2D	; 45
    6058:	0e 94 93 29 	call	0x5326	; 0x5326 <send_oled_data>
	send_oled_data(0);   //Set the starting column coordinates,
    605c:	80 e0       	ldi	r24, 0x00	; 0
    605e:	0e 94 93 29 	call	0x5326	; 0x5326 <send_oled_data>
	send_oled_data(bar4_end_row-3);  //Set the finishing row coordinates
    6062:	81 e3       	ldi	r24, 0x31	; 49
    6064:	0e 94 93 29 	call	0x5326	; 0x5326 <send_oled_data>
	send_oled_data(63 - c_bar4);  //Set the finishing column coordinates
    6068:	0a e0       	ldi	r16, 0x0A	; 10
    606a:	11 e0       	ldi	r17, 0x01	; 1
    606c:	f8 01       	movw	r30, r16
    606e:	80 81       	ld	r24, Z
    6070:	fc 2f       	mov	r31, r28
    6072:	f8 1b       	sub	r31, r24
    6074:	8f 2f       	mov	r24, r31
    6076:	0e 94 93 29 	call	0x5326	; 0x5326 <send_oled_data>
	send_oled_data(0);   //Set the outline color C, B and A
    607a:	80 e0       	ldi	r24, 0x00	; 0
    607c:	0e 94 93 29 	call	0x5326	; 0x5326 <send_oled_data>
	send_oled_data(0);
    6080:	80 e0       	ldi	r24, 0x00	; 0
    6082:	0e 94 93 29 	call	0x5326	; 0x5326 <send_oled_data>
	send_oled_data(0);
    6086:	80 e0       	ldi	r24, 0x00	; 0
    6088:	0e 94 93 29 	call	0x5326	; 0x5326 <send_oled_data>
	send_oled_data(0);   //Set the filled color C, B and A
    608c:	80 e0       	ldi	r24, 0x00	; 0
    608e:	0e 94 93 29 	call	0x5326	; 0x5326 <send_oled_data>
	send_oled_data(0);
    6092:	80 e0       	ldi	r24, 0x00	; 0
    6094:	0e 94 93 29 	call	0x5326	; 0x5326 <send_oled_data>
	send_oled_data(0);
    6098:	80 e0       	ldi	r24, 0x00	; 0
    609a:	0e 94 93 29 	call	0x5326	; 0x5326 <send_oled_data>
    609e:	8f e9       	ldi	r24, 0x9F	; 159
    60a0:	9f e0       	ldi	r25, 0x0F	; 15
    60a2:	01 97       	sbiw	r24, 0x01	; 1
    60a4:	f1 f7       	brne	.-4      	; 0x60a2 <display_thin_blue_bars+0x272>
    60a6:	00 c0       	rjmp	.+0      	; 0x60a8 <display_thin_blue_bars+0x278>
    60a8:	00 00       	nop
	_delay_ms(2);
	
	send_oled_data(0x22); // Enter the "draw rectangle mode" by execute the command 22h
    60aa:	82 e2       	ldi	r24, 0x22	; 34
    60ac:	0e 94 93 29 	call	0x5326	; 0x5326 <send_oled_data>
	send_oled_data(bar4_start_row+3);   //Set the starting row coordinates
    60b0:	8d e2       	ldi	r24, 0x2D	; 45
    60b2:	0e 94 93 29 	call	0x5326	; 0x5326 <send_oled_data>
	send_oled_data(63 - c_bar4);   //Set the starting column coordinates,
    60b6:	f8 01       	movw	r30, r16
    60b8:	80 81       	ld	r24, Z
    60ba:	fc 2f       	mov	r31, r28
    60bc:	f8 1b       	sub	r31, r24
    60be:	8f 2f       	mov	r24, r31
    60c0:	0e 94 93 29 	call	0x5326	; 0x5326 <send_oled_data>
	send_oled_data(bar4_end_row-3);  //Set the finishing row coordinates
    60c4:	81 e3       	ldi	r24, 0x31	; 49
    60c6:	0e 94 93 29 	call	0x5326	; 0x5326 <send_oled_data>
	send_oled_data(63);  //Set the finishing column coordinates
    60ca:	8f e3       	ldi	r24, 0x3F	; 63
    60cc:	0e 94 93 29 	call	0x5326	; 0x5326 <send_oled_data>
	send_oled_data(0);   //Set the outline color C, B and A
    60d0:	80 e0       	ldi	r24, 0x00	; 0
    60d2:	0e 94 93 29 	call	0x5326	; 0x5326 <send_oled_data>
	send_oled_data(0);
    60d6:	80 e0       	ldi	r24, 0x00	; 0
    60d8:	0e 94 93 29 	call	0x5326	; 0x5326 <send_oled_data>
	send_oled_data(0xff);
    60dc:	8f ef       	ldi	r24, 0xFF	; 255
    60de:	0e 94 93 29 	call	0x5326	; 0x5326 <send_oled_data>
	send_oled_data(0);   //Set the filled color C, B and A
    60e2:	80 e0       	ldi	r24, 0x00	; 0
    60e4:	0e 94 93 29 	call	0x5326	; 0x5326 <send_oled_data>
	send_oled_data(0);
    60e8:	80 e0       	ldi	r24, 0x00	; 0
    60ea:	0e 94 93 29 	call	0x5326	; 0x5326 <send_oled_data>
	send_oled_data(0xff);
    60ee:	8f ef       	ldi	r24, 0xFF	; 255
    60f0:	0e 94 93 29 	call	0x5326	; 0x5326 <send_oled_data>
    60f4:	8f e9       	ldi	r24, 0x9F	; 159
    60f6:	9f e0       	ldi	r25, 0x0F	; 15
    60f8:	01 97       	sbiw	r24, 0x01	; 1
    60fa:	f1 f7       	brne	.-4      	; 0x60f8 <display_thin_blue_bars+0x2c8>
    60fc:	00 c0       	rjmp	.+0      	; 0x60fe <display_thin_blue_bars+0x2ce>
    60fe:	00 00       	nop
	_delay_ms(2);
	//==========================
	
	util_BitClear(PORTB,OLED_DC); // SET OLED TO RECEIVE COMMAND
    6100:	28 98       	cbi	0x05, 0	; 5
	send_oled_data(0x22); // Enter the "draw rectangle mode" by execute the command 22h
    6102:	82 e2       	ldi	r24, 0x22	; 34
    6104:	0e 94 93 29 	call	0x5326	; 0x5326 <send_oled_data>
	send_oled_data(bar5_start_row+3);   //Set the starting row coordinates
    6108:	8b e3       	ldi	r24, 0x3B	; 59
    610a:	0e 94 93 29 	call	0x5326	; 0x5326 <send_oled_data>
	send_oled_data(0);   //Set the starting column coordinates,
    610e:	80 e0       	ldi	r24, 0x00	; 0
    6110:	0e 94 93 29 	call	0x5326	; 0x5326 <send_oled_data>
	send_oled_data(bar5_end_row-3);  //Set the finishing row coordinates
    6114:	8f e3       	ldi	r24, 0x3F	; 63
    6116:	0e 94 93 29 	call	0x5326	; 0x5326 <send_oled_data>
	send_oled_data(63 - c_bar5);  //Set the finishing column coordinates
    611a:	01 e1       	ldi	r16, 0x11	; 17
    611c:	11 e0       	ldi	r17, 0x01	; 1
    611e:	f8 01       	movw	r30, r16
    6120:	80 81       	ld	r24, Z
    6122:	fc 2f       	mov	r31, r28
    6124:	f8 1b       	sub	r31, r24
    6126:	8f 2f       	mov	r24, r31
    6128:	0e 94 93 29 	call	0x5326	; 0x5326 <send_oled_data>
	send_oled_data(0);   //Set the outline color C, B and A
    612c:	80 e0       	ldi	r24, 0x00	; 0
    612e:	0e 94 93 29 	call	0x5326	; 0x5326 <send_oled_data>
	send_oled_data(0);
    6132:	80 e0       	ldi	r24, 0x00	; 0
    6134:	0e 94 93 29 	call	0x5326	; 0x5326 <send_oled_data>
	send_oled_data(0);
    6138:	80 e0       	ldi	r24, 0x00	; 0
    613a:	0e 94 93 29 	call	0x5326	; 0x5326 <send_oled_data>
	send_oled_data(0);   //Set the filled color C, B and A
    613e:	80 e0       	ldi	r24, 0x00	; 0
    6140:	0e 94 93 29 	call	0x5326	; 0x5326 <send_oled_data>
	send_oled_data(0);
    6144:	80 e0       	ldi	r24, 0x00	; 0
    6146:	0e 94 93 29 	call	0x5326	; 0x5326 <send_oled_data>
	send_oled_data(0);
    614a:	80 e0       	ldi	r24, 0x00	; 0
    614c:	0e 94 93 29 	call	0x5326	; 0x5326 <send_oled_data>
    6150:	8f e9       	ldi	r24, 0x9F	; 159
    6152:	9f e0       	ldi	r25, 0x0F	; 15
    6154:	01 97       	sbiw	r24, 0x01	; 1
    6156:	f1 f7       	brne	.-4      	; 0x6154 <display_thin_blue_bars+0x324>
    6158:	00 c0       	rjmp	.+0      	; 0x615a <display_thin_blue_bars+0x32a>
    615a:	00 00       	nop
	_delay_ms(2);
	
	send_oled_data(0x22); // Enter the "draw rectangle mode" by execute the command 22h
    615c:	82 e2       	ldi	r24, 0x22	; 34
    615e:	0e 94 93 29 	call	0x5326	; 0x5326 <send_oled_data>
	send_oled_data(bar5_start_row+3);   //Set the starting row coordinates
    6162:	8b e3       	ldi	r24, 0x3B	; 59
    6164:	0e 94 93 29 	call	0x5326	; 0x5326 <send_oled_data>
	send_oled_data(63 - c_bar5);   //Set the starting column coordinates,
    6168:	f8 01       	movw	r30, r16
    616a:	80 81       	ld	r24, Z
    616c:	fc 2f       	mov	r31, r28
    616e:	f8 1b       	sub	r31, r24
    6170:	8f 2f       	mov	r24, r31
    6172:	0e 94 93 29 	call	0x5326	; 0x5326 <send_oled_data>
	send_oled_data(bar5_end_row-3);  //Set the finishing row coordinates
    6176:	8f e3       	ldi	r24, 0x3F	; 63
    6178:	0e 94 93 29 	call	0x5326	; 0x5326 <send_oled_data>
	send_oled_data(63);  //Set the finishing column coordinates
    617c:	8f e3       	ldi	r24, 0x3F	; 63
    617e:	0e 94 93 29 	call	0x5326	; 0x5326 <send_oled_data>
	send_oled_data(0);   //Set the outline color C, B and A
    6182:	80 e0       	ldi	r24, 0x00	; 0
    6184:	0e 94 93 29 	call	0x5326	; 0x5326 <send_oled_data>
	send_oled_data(0);
    6188:	80 e0       	ldi	r24, 0x00	; 0
    618a:	0e 94 93 29 	call	0x5326	; 0x5326 <send_oled_data>
	send_oled_data(0xff);
    618e:	8f ef       	ldi	r24, 0xFF	; 255
    6190:	0e 94 93 29 	call	0x5326	; 0x5326 <send_oled_data>
	send_oled_data(0);   //Set the filled color C, B and A
    6194:	80 e0       	ldi	r24, 0x00	; 0
    6196:	0e 94 93 29 	call	0x5326	; 0x5326 <send_oled_data>
	send_oled_data(0);
    619a:	80 e0       	ldi	r24, 0x00	; 0
    619c:	0e 94 93 29 	call	0x5326	; 0x5326 <send_oled_data>
	send_oled_data(0xff);
    61a0:	8f ef       	ldi	r24, 0xFF	; 255
    61a2:	0e 94 93 29 	call	0x5326	; 0x5326 <send_oled_data>
    61a6:	8f e9       	ldi	r24, 0x9F	; 159
    61a8:	9f e0       	ldi	r25, 0x0F	; 15
    61aa:	01 97       	sbiw	r24, 0x01	; 1
    61ac:	f1 f7       	brne	.-4      	; 0x61aa <display_thin_blue_bars+0x37a>
    61ae:	00 c0       	rjmp	.+0      	; 0x61b0 <display_thin_blue_bars+0x380>
    61b0:	00 00       	nop
	_delay_ms(2);
	//==========================
	
	util_BitClear(PORTB,OLED_DC);  // SET OLED TO RECEIVE COMMAND
    61b2:	28 98       	cbi	0x05, 0	; 5
	send_oled_data(0x22); // Enter the "draw rectangle mode" by execute the command 22h
    61b4:	82 e2       	ldi	r24, 0x22	; 34
    61b6:	0e 94 93 29 	call	0x5326	; 0x5326 <send_oled_data>
	send_oled_data(bar6_start_row+3);   //Set the starting row coordinates
    61ba:	89 e4       	ldi	r24, 0x49	; 73
    61bc:	0e 94 93 29 	call	0x5326	; 0x5326 <send_oled_data>
	send_oled_data(0);   //Set the starting column coordinates,
    61c0:	80 e0       	ldi	r24, 0x00	; 0
    61c2:	0e 94 93 29 	call	0x5326	; 0x5326 <send_oled_data>
	send_oled_data(bar6_end_row-3);  //Set the finishing row coordinates
    61c6:	8d e4       	ldi	r24, 0x4D	; 77
    61c8:	0e 94 93 29 	call	0x5326	; 0x5326 <send_oled_data>
	send_oled_data(63 - c_bar6);  //Set the finishing column coordinates
    61cc:	06 e0       	ldi	r16, 0x06	; 6
    61ce:	11 e0       	ldi	r17, 0x01	; 1
    61d0:	f8 01       	movw	r30, r16
    61d2:	80 81       	ld	r24, Z
    61d4:	fc 2f       	mov	r31, r28
    61d6:	f8 1b       	sub	r31, r24
    61d8:	8f 2f       	mov	r24, r31
    61da:	0e 94 93 29 	call	0x5326	; 0x5326 <send_oled_data>
	send_oled_data(0);   //Set the outline color C, B and A
    61de:	80 e0       	ldi	r24, 0x00	; 0
    61e0:	0e 94 93 29 	call	0x5326	; 0x5326 <send_oled_data>
	send_oled_data(0);
    61e4:	80 e0       	ldi	r24, 0x00	; 0
    61e6:	0e 94 93 29 	call	0x5326	; 0x5326 <send_oled_data>
	send_oled_data(0);
    61ea:	80 e0       	ldi	r24, 0x00	; 0
    61ec:	0e 94 93 29 	call	0x5326	; 0x5326 <send_oled_data>
	send_oled_data(0);   //Set the filled color C, B and A
    61f0:	80 e0       	ldi	r24, 0x00	; 0
    61f2:	0e 94 93 29 	call	0x5326	; 0x5326 <send_oled_data>
	send_oled_data(0);
    61f6:	80 e0       	ldi	r24, 0x00	; 0
    61f8:	0e 94 93 29 	call	0x5326	; 0x5326 <send_oled_data>
	send_oled_data(0);
    61fc:	80 e0       	ldi	r24, 0x00	; 0
    61fe:	0e 94 93 29 	call	0x5326	; 0x5326 <send_oled_data>
    6202:	8f e9       	ldi	r24, 0x9F	; 159
    6204:	9f e0       	ldi	r25, 0x0F	; 15
    6206:	01 97       	sbiw	r24, 0x01	; 1
    6208:	f1 f7       	brne	.-4      	; 0x6206 <display_thin_blue_bars+0x3d6>
    620a:	00 c0       	rjmp	.+0      	; 0x620c <display_thin_blue_bars+0x3dc>
    620c:	00 00       	nop
	_delay_ms(2);
	
	send_oled_data(0x22); // Enter the "draw rectangle mode" by execute the command 22h
    620e:	82 e2       	ldi	r24, 0x22	; 34
    6210:	0e 94 93 29 	call	0x5326	; 0x5326 <send_oled_data>
	send_oled_data(bar6_start_row+3);   //Set the starting row coordinates
    6214:	89 e4       	ldi	r24, 0x49	; 73
    6216:	0e 94 93 29 	call	0x5326	; 0x5326 <send_oled_data>
	send_oled_data(63 - c_bar6);   //Set the starting column coordinates,
    621a:	f8 01       	movw	r30, r16
    621c:	80 81       	ld	r24, Z
    621e:	fc 2f       	mov	r31, r28
    6220:	f8 1b       	sub	r31, r24
    6222:	8f 2f       	mov	r24, r31
    6224:	0e 94 93 29 	call	0x5326	; 0x5326 <send_oled_data>
	send_oled_data(bar6_end_row-3);  //Set the finishing row coordinates
    6228:	8d e4       	ldi	r24, 0x4D	; 77
    622a:	0e 94 93 29 	call	0x5326	; 0x5326 <send_oled_data>
	send_oled_data(63);  //Set the finishing column coordinates
    622e:	8f e3       	ldi	r24, 0x3F	; 63
    6230:	0e 94 93 29 	call	0x5326	; 0x5326 <send_oled_data>
	send_oled_data(0);   //Set the outline color C, B and A
    6234:	80 e0       	ldi	r24, 0x00	; 0
    6236:	0e 94 93 29 	call	0x5326	; 0x5326 <send_oled_data>
	send_oled_data(0);
    623a:	80 e0       	ldi	r24, 0x00	; 0
    623c:	0e 94 93 29 	call	0x5326	; 0x5326 <send_oled_data>
	send_oled_data(0xff);
    6240:	8f ef       	ldi	r24, 0xFF	; 255
    6242:	0e 94 93 29 	call	0x5326	; 0x5326 <send_oled_data>
	send_oled_data(0);   //Set the filled color C, B and A
    6246:	80 e0       	ldi	r24, 0x00	; 0
    6248:	0e 94 93 29 	call	0x5326	; 0x5326 <send_oled_data>
	send_oled_data(0);
    624c:	80 e0       	ldi	r24, 0x00	; 0
    624e:	0e 94 93 29 	call	0x5326	; 0x5326 <send_oled_data>
	send_oled_data(0xff);
    6252:	8f ef       	ldi	r24, 0xFF	; 255
    6254:	0e 94 93 29 	call	0x5326	; 0x5326 <send_oled_data>
    6258:	8f e9       	ldi	r24, 0x9F	; 159
    625a:	9f e0       	ldi	r25, 0x0F	; 15
    625c:	01 97       	sbiw	r24, 0x01	; 1
    625e:	f1 f7       	brne	.-4      	; 0x625c <display_thin_blue_bars+0x42c>
    6260:	00 c0       	rjmp	.+0      	; 0x6262 <display_thin_blue_bars+0x432>
    6262:	00 00       	nop
	_delay_ms(2);
	//==========================
	
	util_BitClear(PORTB,OLED_DC);  // SET OLED TO RECEIVE COMMAND
    6264:	28 98       	cbi	0x05, 0	; 5
	send_oled_data(0x22); // Enter the "draw rectangle mode" by execute the command 22h
    6266:	82 e2       	ldi	r24, 0x22	; 34
    6268:	0e 94 93 29 	call	0x5326	; 0x5326 <send_oled_data>
	send_oled_data(bar7_start_row+3);   //Set the starting row coordinates
    626c:	87 e5       	ldi	r24, 0x57	; 87
    626e:	0e 94 93 29 	call	0x5326	; 0x5326 <send_oled_data>
	send_oled_data(0);   //Set the starting column coordinates,
    6272:	80 e0       	ldi	r24, 0x00	; 0
    6274:	0e 94 93 29 	call	0x5326	; 0x5326 <send_oled_data>
	send_oled_data(bar7_end_row-3);  //Set the finishing row coordinates
    6278:	8b e5       	ldi	r24, 0x5B	; 91
    627a:	0e 94 93 29 	call	0x5326	; 0x5326 <send_oled_data>
	send_oled_data(63 - c_bar7);  //Set the finishing column coordinates
    627e:	05 e1       	ldi	r16, 0x15	; 21
    6280:	11 e0       	ldi	r17, 0x01	; 1
    6282:	f8 01       	movw	r30, r16
    6284:	80 81       	ld	r24, Z
    6286:	fc 2f       	mov	r31, r28
    6288:	f8 1b       	sub	r31, r24
    628a:	8f 2f       	mov	r24, r31
    628c:	0e 94 93 29 	call	0x5326	; 0x5326 <send_oled_data>
	send_oled_data(0);   //Set the outline color C, B and A
    6290:	80 e0       	ldi	r24, 0x00	; 0
    6292:	0e 94 93 29 	call	0x5326	; 0x5326 <send_oled_data>
	send_oled_data(0);
    6296:	80 e0       	ldi	r24, 0x00	; 0
    6298:	0e 94 93 29 	call	0x5326	; 0x5326 <send_oled_data>
	send_oled_data(0);
    629c:	80 e0       	ldi	r24, 0x00	; 0
    629e:	0e 94 93 29 	call	0x5326	; 0x5326 <send_oled_data>
	send_oled_data(0);   //Set the filled color C, B and A
    62a2:	80 e0       	ldi	r24, 0x00	; 0
    62a4:	0e 94 93 29 	call	0x5326	; 0x5326 <send_oled_data>
	send_oled_data(0);
    62a8:	80 e0       	ldi	r24, 0x00	; 0
    62aa:	0e 94 93 29 	call	0x5326	; 0x5326 <send_oled_data>
	send_oled_data(0);
    62ae:	80 e0       	ldi	r24, 0x00	; 0
    62b0:	0e 94 93 29 	call	0x5326	; 0x5326 <send_oled_data>
    62b4:	8f e9       	ldi	r24, 0x9F	; 159
    62b6:	9f e0       	ldi	r25, 0x0F	; 15
    62b8:	01 97       	sbiw	r24, 0x01	; 1
    62ba:	f1 f7       	brne	.-4      	; 0x62b8 <display_thin_blue_bars+0x488>
    62bc:	00 c0       	rjmp	.+0      	; 0x62be <display_thin_blue_bars+0x48e>
    62be:	00 00       	nop
	_delay_ms(2);
	
	send_oled_data(0x22); // Enter the "draw rectangle mode" by execute the command 22h
    62c0:	82 e2       	ldi	r24, 0x22	; 34
    62c2:	0e 94 93 29 	call	0x5326	; 0x5326 <send_oled_data>
	send_oled_data(bar7_start_row+3);   //Set the starting row coordinates
    62c6:	87 e5       	ldi	r24, 0x57	; 87
    62c8:	0e 94 93 29 	call	0x5326	; 0x5326 <send_oled_data>
	send_oled_data(63 - c_bar7);   //Set the starting column coordinates,
    62cc:	f8 01       	movw	r30, r16
    62ce:	80 81       	ld	r24, Z
    62d0:	c8 1b       	sub	r28, r24
    62d2:	8c 2f       	mov	r24, r28
    62d4:	0e 94 93 29 	call	0x5326	; 0x5326 <send_oled_data>
	send_oled_data(bar7_end_row-3);  //Set the finishing row coordinates
    62d8:	8b e5       	ldi	r24, 0x5B	; 91
    62da:	0e 94 93 29 	call	0x5326	; 0x5326 <send_oled_data>
	send_oled_data(63);  //Set the finishing column coordinates
    62de:	8f e3       	ldi	r24, 0x3F	; 63
    62e0:	0e 94 93 29 	call	0x5326	; 0x5326 <send_oled_data>
	send_oled_data(0);   //Set the outline color C, B and A
    62e4:	80 e0       	ldi	r24, 0x00	; 0
    62e6:	0e 94 93 29 	call	0x5326	; 0x5326 <send_oled_data>
	send_oled_data(0);
    62ea:	80 e0       	ldi	r24, 0x00	; 0
    62ec:	0e 94 93 29 	call	0x5326	; 0x5326 <send_oled_data>
	send_oled_data(0xff);
    62f0:	8f ef       	ldi	r24, 0xFF	; 255
    62f2:	0e 94 93 29 	call	0x5326	; 0x5326 <send_oled_data>
	send_oled_data(0);   //Set the filled color C, B and A
    62f6:	80 e0       	ldi	r24, 0x00	; 0
    62f8:	0e 94 93 29 	call	0x5326	; 0x5326 <send_oled_data>
	send_oled_data(0);
    62fc:	80 e0       	ldi	r24, 0x00	; 0
    62fe:	0e 94 93 29 	call	0x5326	; 0x5326 <send_oled_data>
	send_oled_data(0xff);
    6302:	8f ef       	ldi	r24, 0xFF	; 255
    6304:	0e 94 93 29 	call	0x5326	; 0x5326 <send_oled_data>
    6308:	8f e9       	ldi	r24, 0x9F	; 159
    630a:	9f e0       	ldi	r25, 0x0F	; 15
    630c:	01 97       	sbiw	r24, 0x01	; 1
    630e:	f1 f7       	brne	.-4      	; 0x630c <display_thin_blue_bars+0x4dc>
    6310:	00 c0       	rjmp	.+0      	; 0x6312 <display_thin_blue_bars+0x4e2>
    6312:	00 00       	nop
	_delay_ms(2);
	//==========================
}
    6314:	cf 91       	pop	r28
    6316:	1f 91       	pop	r17
    6318:	0f 91       	pop	r16
    631a:	08 95       	ret

0000631c <display_thin_red_bars>:


//=====================================================================================

void display_thin_red_bars (void)
{ 
    631c:	0f 93       	push	r16
    631e:	1f 93       	push	r17
    6320:	cf 93       	push	r28
	util_BitClear(PORTB,OLED_DC);  // SET OLED TO RECEIVE COMMAND
    6322:	28 98       	cbi	0x05, 0	; 5
	send_oled_data(0x22); // Enter the "draw rectangle mode" by execute the command 22h
    6324:	82 e2       	ldi	r24, 0x22	; 34
    6326:	0e 94 93 29 	call	0x5326	; 0x5326 <send_oled_data>
	send_oled_data(bar1_start_row+3);   //Set the starting row coordinates
    632a:	83 e0       	ldi	r24, 0x03	; 3
    632c:	0e 94 93 29 	call	0x5326	; 0x5326 <send_oled_data>
	send_oled_data(0);   //Set the starting column coordinates,
    6330:	80 e0       	ldi	r24, 0x00	; 0
    6332:	0e 94 93 29 	call	0x5326	; 0x5326 <send_oled_data>
	send_oled_data(bar1_end_row-3);  //Set the finishing row coordinates
    6336:	87 e0       	ldi	r24, 0x07	; 7
    6338:	0e 94 93 29 	call	0x5326	; 0x5326 <send_oled_data>
	send_oled_data(63 - c_bar1);  //Set the finishing column coordinates
    633c:	08 e0       	ldi	r16, 0x08	; 8
    633e:	11 e0       	ldi	r17, 0x01	; 1
    6340:	cf e3       	ldi	r28, 0x3F	; 63
    6342:	f8 01       	movw	r30, r16
    6344:	80 81       	ld	r24, Z
    6346:	fc 2f       	mov	r31, r28
    6348:	f8 1b       	sub	r31, r24
    634a:	8f 2f       	mov	r24, r31
    634c:	0e 94 93 29 	call	0x5326	; 0x5326 <send_oled_data>
	send_oled_data(0);   //Set the outline color C, B and A
    6350:	80 e0       	ldi	r24, 0x00	; 0
    6352:	0e 94 93 29 	call	0x5326	; 0x5326 <send_oled_data>
	send_oled_data(0);
    6356:	80 e0       	ldi	r24, 0x00	; 0
    6358:	0e 94 93 29 	call	0x5326	; 0x5326 <send_oled_data>
	send_oled_data(0);
    635c:	80 e0       	ldi	r24, 0x00	; 0
    635e:	0e 94 93 29 	call	0x5326	; 0x5326 <send_oled_data>
	send_oled_data(0);   //Set the filled color C, B and A
    6362:	80 e0       	ldi	r24, 0x00	; 0
    6364:	0e 94 93 29 	call	0x5326	; 0x5326 <send_oled_data>
	send_oled_data(0);
    6368:	80 e0       	ldi	r24, 0x00	; 0
    636a:	0e 94 93 29 	call	0x5326	; 0x5326 <send_oled_data>
	send_oled_data(0);
    636e:	80 e0       	ldi	r24, 0x00	; 0
    6370:	0e 94 93 29 	call	0x5326	; 0x5326 <send_oled_data>
    6374:	8f e9       	ldi	r24, 0x9F	; 159
    6376:	9f e0       	ldi	r25, 0x0F	; 15
    6378:	01 97       	sbiw	r24, 0x01	; 1
    637a:	f1 f7       	brne	.-4      	; 0x6378 <display_thin_red_bars+0x5c>
    637c:	00 c0       	rjmp	.+0      	; 0x637e <display_thin_red_bars+0x62>
    637e:	00 00       	nop
	_delay_ms(2);
	
	send_oled_data(0x22); // Enter the "draw rectangle mode" by execute the command 22h
    6380:	82 e2       	ldi	r24, 0x22	; 34
    6382:	0e 94 93 29 	call	0x5326	; 0x5326 <send_oled_data>
	send_oled_data(bar1_start_row+3);   //Set the starting row coordinates
    6386:	83 e0       	ldi	r24, 0x03	; 3
    6388:	0e 94 93 29 	call	0x5326	; 0x5326 <send_oled_data>
	send_oled_data(63 - c_bar1);   //Set the starting column coordinates,
    638c:	f8 01       	movw	r30, r16
    638e:	80 81       	ld	r24, Z
    6390:	fc 2f       	mov	r31, r28
    6392:	f8 1b       	sub	r31, r24
    6394:	8f 2f       	mov	r24, r31
    6396:	0e 94 93 29 	call	0x5326	; 0x5326 <send_oled_data>
	send_oled_data(bar1_end_row-3);  //Set the finishing row coordinates
    639a:	87 e0       	ldi	r24, 0x07	; 7
    639c:	0e 94 93 29 	call	0x5326	; 0x5326 <send_oled_data>
	send_oled_data(63);  //Set the finishing column coordinates
    63a0:	8f e3       	ldi	r24, 0x3F	; 63
    63a2:	0e 94 93 29 	call	0x5326	; 0x5326 <send_oled_data>
	send_oled_data(0xff);   //Set the outline color C, B and A
    63a6:	8f ef       	ldi	r24, 0xFF	; 255
    63a8:	0e 94 93 29 	call	0x5326	; 0x5326 <send_oled_data>
	send_oled_data(0);
    63ac:	80 e0       	ldi	r24, 0x00	; 0
    63ae:	0e 94 93 29 	call	0x5326	; 0x5326 <send_oled_data>
	send_oled_data(0);
    63b2:	80 e0       	ldi	r24, 0x00	; 0
    63b4:	0e 94 93 29 	call	0x5326	; 0x5326 <send_oled_data>
	send_oled_data(0xff);   //Set the filled color C, B and A
    63b8:	8f ef       	ldi	r24, 0xFF	; 255
    63ba:	0e 94 93 29 	call	0x5326	; 0x5326 <send_oled_data>
	send_oled_data(0);
    63be:	80 e0       	ldi	r24, 0x00	; 0
    63c0:	0e 94 93 29 	call	0x5326	; 0x5326 <send_oled_data>
	send_oled_data(0);
    63c4:	80 e0       	ldi	r24, 0x00	; 0
    63c6:	0e 94 93 29 	call	0x5326	; 0x5326 <send_oled_data>
    63ca:	8f e9       	ldi	r24, 0x9F	; 159
    63cc:	9f e0       	ldi	r25, 0x0F	; 15
    63ce:	01 97       	sbiw	r24, 0x01	; 1
    63d0:	f1 f7       	brne	.-4      	; 0x63ce <display_thin_red_bars+0xb2>
    63d2:	00 c0       	rjmp	.+0      	; 0x63d4 <display_thin_red_bars+0xb8>
    63d4:	00 00       	nop
	_delay_ms(2);
	//===========================

	util_BitClear(PORTB,OLED_DC);   // SET OLED TO RECEIVE COMMAND
    63d6:	28 98       	cbi	0x05, 0	; 5
	send_oled_data(0x22); // Enter the "draw rectangle mode" by execute the command 22h
    63d8:	82 e2       	ldi	r24, 0x22	; 34
    63da:	0e 94 93 29 	call	0x5326	; 0x5326 <send_oled_data>
	send_oled_data(bar2_start_row+3);   //Set the starting row coordinates
    63de:	81 e1       	ldi	r24, 0x11	; 17
    63e0:	0e 94 93 29 	call	0x5326	; 0x5326 <send_oled_data>
	send_oled_data(0);   //Set the starting column coordinates,
    63e4:	80 e0       	ldi	r24, 0x00	; 0
    63e6:	0e 94 93 29 	call	0x5326	; 0x5326 <send_oled_data>
	send_oled_data(bar2_end_row-3);  //Set the finishing row coordinates
    63ea:	85 e1       	ldi	r24, 0x15	; 21
    63ec:	0e 94 93 29 	call	0x5326	; 0x5326 <send_oled_data>
	send_oled_data(63 - c_bar2);  //Set the finishing column coordinates
    63f0:	0f e0       	ldi	r16, 0x0F	; 15
    63f2:	11 e0       	ldi	r17, 0x01	; 1
    63f4:	f8 01       	movw	r30, r16
    63f6:	80 81       	ld	r24, Z
    63f8:	fc 2f       	mov	r31, r28
    63fa:	f8 1b       	sub	r31, r24
    63fc:	8f 2f       	mov	r24, r31
    63fe:	0e 94 93 29 	call	0x5326	; 0x5326 <send_oled_data>
	send_oled_data(0);   //Set the outline color C, B and A
    6402:	80 e0       	ldi	r24, 0x00	; 0
    6404:	0e 94 93 29 	call	0x5326	; 0x5326 <send_oled_data>
	send_oled_data(0);
    6408:	80 e0       	ldi	r24, 0x00	; 0
    640a:	0e 94 93 29 	call	0x5326	; 0x5326 <send_oled_data>
	send_oled_data(0);
    640e:	80 e0       	ldi	r24, 0x00	; 0
    6410:	0e 94 93 29 	call	0x5326	; 0x5326 <send_oled_data>
	send_oled_data(0);   //Set the filled color C, B and A
    6414:	80 e0       	ldi	r24, 0x00	; 0
    6416:	0e 94 93 29 	call	0x5326	; 0x5326 <send_oled_data>
	send_oled_data(0);
    641a:	80 e0       	ldi	r24, 0x00	; 0
    641c:	0e 94 93 29 	call	0x5326	; 0x5326 <send_oled_data>
	send_oled_data(0);
    6420:	80 e0       	ldi	r24, 0x00	; 0
    6422:	0e 94 93 29 	call	0x5326	; 0x5326 <send_oled_data>
    6426:	8f e9       	ldi	r24, 0x9F	; 159
    6428:	9f e0       	ldi	r25, 0x0F	; 15
    642a:	01 97       	sbiw	r24, 0x01	; 1
    642c:	f1 f7       	brne	.-4      	; 0x642a <display_thin_red_bars+0x10e>
    642e:	00 c0       	rjmp	.+0      	; 0x6430 <display_thin_red_bars+0x114>
    6430:	00 00       	nop
	_delay_ms(2);
	
	send_oled_data(0x22); // Enter the "draw rectangle mode" by execute the command 22h
    6432:	82 e2       	ldi	r24, 0x22	; 34
    6434:	0e 94 93 29 	call	0x5326	; 0x5326 <send_oled_data>
	send_oled_data(bar2_start_row+3);   //Set the starting row coordinates
    6438:	81 e1       	ldi	r24, 0x11	; 17
    643a:	0e 94 93 29 	call	0x5326	; 0x5326 <send_oled_data>
	send_oled_data(63 - c_bar2);   //Set the starting column coordinates,
    643e:	f8 01       	movw	r30, r16
    6440:	80 81       	ld	r24, Z
    6442:	fc 2f       	mov	r31, r28
    6444:	f8 1b       	sub	r31, r24
    6446:	8f 2f       	mov	r24, r31
    6448:	0e 94 93 29 	call	0x5326	; 0x5326 <send_oled_data>
	send_oled_data(bar2_end_row-3);  //Set the finishing row coordinates
    644c:	85 e1       	ldi	r24, 0x15	; 21
    644e:	0e 94 93 29 	call	0x5326	; 0x5326 <send_oled_data>
	send_oled_data(63);  //Set the finishing column coordinates
    6452:	8f e3       	ldi	r24, 0x3F	; 63
    6454:	0e 94 93 29 	call	0x5326	; 0x5326 <send_oled_data>
	send_oled_data(0xff);   //Set the outline color C, B and A
    6458:	8f ef       	ldi	r24, 0xFF	; 255
    645a:	0e 94 93 29 	call	0x5326	; 0x5326 <send_oled_data>
	send_oled_data(0);
    645e:	80 e0       	ldi	r24, 0x00	; 0
    6460:	0e 94 93 29 	call	0x5326	; 0x5326 <send_oled_data>
	send_oled_data(0);
    6464:	80 e0       	ldi	r24, 0x00	; 0
    6466:	0e 94 93 29 	call	0x5326	; 0x5326 <send_oled_data>
	send_oled_data(0xff);   //Set the filled color C, B and A
    646a:	8f ef       	ldi	r24, 0xFF	; 255
    646c:	0e 94 93 29 	call	0x5326	; 0x5326 <send_oled_data>
	send_oled_data(0);
    6470:	80 e0       	ldi	r24, 0x00	; 0
    6472:	0e 94 93 29 	call	0x5326	; 0x5326 <send_oled_data>
	send_oled_data(0);
    6476:	80 e0       	ldi	r24, 0x00	; 0
    6478:	0e 94 93 29 	call	0x5326	; 0x5326 <send_oled_data>
    647c:	8f e9       	ldi	r24, 0x9F	; 159
    647e:	9f e0       	ldi	r25, 0x0F	; 15
    6480:	01 97       	sbiw	r24, 0x01	; 1
    6482:	f1 f7       	brne	.-4      	; 0x6480 <display_thin_red_bars+0x164>
    6484:	00 c0       	rjmp	.+0      	; 0x6486 <display_thin_red_bars+0x16a>
    6486:	00 00       	nop
	_delay_ms(2);
	//===============================
	
	util_BitClear(PORTB,OLED_DC);  // SET OLED TO RECEIVE COMMAND
    6488:	28 98       	cbi	0x05, 0	; 5
	send_oled_data(0x22); // Enter the "draw rectangle mode" by execute the command 22h
    648a:	82 e2       	ldi	r24, 0x22	; 34
    648c:	0e 94 93 29 	call	0x5326	; 0x5326 <send_oled_data>
	send_oled_data(bar3_start_row+3);   //Set the starting row coordinates
    6490:	8f e1       	ldi	r24, 0x1F	; 31
    6492:	0e 94 93 29 	call	0x5326	; 0x5326 <send_oled_data>
	send_oled_data(0);   //Set the starting column coordinates,
    6496:	80 e0       	ldi	r24, 0x00	; 0
    6498:	0e 94 93 29 	call	0x5326	; 0x5326 <send_oled_data>
	send_oled_data(bar3_end_row-3);  //Set the finishing row coordinates
    649c:	83 e2       	ldi	r24, 0x23	; 35
    649e:	0e 94 93 29 	call	0x5326	; 0x5326 <send_oled_data>
	send_oled_data(63 - c_bar3);  //Set the finishing column coordinates
    64a2:	03 e1       	ldi	r16, 0x13	; 19
    64a4:	11 e0       	ldi	r17, 0x01	; 1
    64a6:	f8 01       	movw	r30, r16
    64a8:	80 81       	ld	r24, Z
    64aa:	fc 2f       	mov	r31, r28
    64ac:	f8 1b       	sub	r31, r24
    64ae:	8f 2f       	mov	r24, r31
    64b0:	0e 94 93 29 	call	0x5326	; 0x5326 <send_oled_data>
	send_oled_data(0);   //Set the outline color C, B and A
    64b4:	80 e0       	ldi	r24, 0x00	; 0
    64b6:	0e 94 93 29 	call	0x5326	; 0x5326 <send_oled_data>
	send_oled_data(0);
    64ba:	80 e0       	ldi	r24, 0x00	; 0
    64bc:	0e 94 93 29 	call	0x5326	; 0x5326 <send_oled_data>
	send_oled_data(0);
    64c0:	80 e0       	ldi	r24, 0x00	; 0
    64c2:	0e 94 93 29 	call	0x5326	; 0x5326 <send_oled_data>
	send_oled_data(0);   //Set the filled color C, B and A
    64c6:	80 e0       	ldi	r24, 0x00	; 0
    64c8:	0e 94 93 29 	call	0x5326	; 0x5326 <send_oled_data>
	send_oled_data(0);
    64cc:	80 e0       	ldi	r24, 0x00	; 0
    64ce:	0e 94 93 29 	call	0x5326	; 0x5326 <send_oled_data>
	send_oled_data(0);
    64d2:	80 e0       	ldi	r24, 0x00	; 0
    64d4:	0e 94 93 29 	call	0x5326	; 0x5326 <send_oled_data>
    64d8:	8f e9       	ldi	r24, 0x9F	; 159
    64da:	9f e0       	ldi	r25, 0x0F	; 15
    64dc:	01 97       	sbiw	r24, 0x01	; 1
    64de:	f1 f7       	brne	.-4      	; 0x64dc <display_thin_red_bars+0x1c0>
    64e0:	00 c0       	rjmp	.+0      	; 0x64e2 <display_thin_red_bars+0x1c6>
    64e2:	00 00       	nop
	_delay_ms(2);
	
	send_oled_data(0x22); // Enter the "draw rectangle mode" by execute the command 22h
    64e4:	82 e2       	ldi	r24, 0x22	; 34
    64e6:	0e 94 93 29 	call	0x5326	; 0x5326 <send_oled_data>
	send_oled_data(bar3_start_row+3);   //Set the starting row coordinates
    64ea:	8f e1       	ldi	r24, 0x1F	; 31
    64ec:	0e 94 93 29 	call	0x5326	; 0x5326 <send_oled_data>
	send_oled_data(63 - c_bar3);   //Set the starting column coordinates,
    64f0:	f8 01       	movw	r30, r16
    64f2:	80 81       	ld	r24, Z
    64f4:	fc 2f       	mov	r31, r28
    64f6:	f8 1b       	sub	r31, r24
    64f8:	8f 2f       	mov	r24, r31
    64fa:	0e 94 93 29 	call	0x5326	; 0x5326 <send_oled_data>
	send_oled_data(bar3_end_row-3);  //Set the finishing row coordinates
    64fe:	83 e2       	ldi	r24, 0x23	; 35
    6500:	0e 94 93 29 	call	0x5326	; 0x5326 <send_oled_data>
	send_oled_data(63);  //Set the finishing column coordinates
    6504:	8f e3       	ldi	r24, 0x3F	; 63
    6506:	0e 94 93 29 	call	0x5326	; 0x5326 <send_oled_data>
	send_oled_data(0xff);   //Set the outline color C, B and A
    650a:	8f ef       	ldi	r24, 0xFF	; 255
    650c:	0e 94 93 29 	call	0x5326	; 0x5326 <send_oled_data>
	send_oled_data(0);
    6510:	80 e0       	ldi	r24, 0x00	; 0
    6512:	0e 94 93 29 	call	0x5326	; 0x5326 <send_oled_data>
	send_oled_data(0);
    6516:	80 e0       	ldi	r24, 0x00	; 0
    6518:	0e 94 93 29 	call	0x5326	; 0x5326 <send_oled_data>
	send_oled_data(0xff);   //Set the filled color C, B and A
    651c:	8f ef       	ldi	r24, 0xFF	; 255
    651e:	0e 94 93 29 	call	0x5326	; 0x5326 <send_oled_data>
	send_oled_data(0);
    6522:	80 e0       	ldi	r24, 0x00	; 0
    6524:	0e 94 93 29 	call	0x5326	; 0x5326 <send_oled_data>
	send_oled_data(0);
    6528:	80 e0       	ldi	r24, 0x00	; 0
    652a:	0e 94 93 29 	call	0x5326	; 0x5326 <send_oled_data>
    652e:	8f e9       	ldi	r24, 0x9F	; 159
    6530:	9f e0       	ldi	r25, 0x0F	; 15
    6532:	01 97       	sbiw	r24, 0x01	; 1
    6534:	f1 f7       	brne	.-4      	; 0x6532 <display_thin_red_bars+0x216>
    6536:	00 c0       	rjmp	.+0      	; 0x6538 <display_thin_red_bars+0x21c>
    6538:	00 00       	nop
	_delay_ms(2);
	//==========================
	
	util_BitClear(PORTB,OLED_DC); // SET OLED TO RECEIVE COMMAND
    653a:	28 98       	cbi	0x05, 0	; 5
	send_oled_data(0x22); // Enter the "draw rectangle mode" by execute the command 22h
    653c:	82 e2       	ldi	r24, 0x22	; 34
    653e:	0e 94 93 29 	call	0x5326	; 0x5326 <send_oled_data>
	send_oled_data(bar4_start_row+3);   //Set the starting row coordinates
    6542:	8d e2       	ldi	r24, 0x2D	; 45
    6544:	0e 94 93 29 	call	0x5326	; 0x5326 <send_oled_data>
	send_oled_data(0);   //Set the starting column coordinates,
    6548:	80 e0       	ldi	r24, 0x00	; 0
    654a:	0e 94 93 29 	call	0x5326	; 0x5326 <send_oled_data>
	send_oled_data(bar4_end_row-3);  //Set the finishing row coordinates
    654e:	81 e3       	ldi	r24, 0x31	; 49
    6550:	0e 94 93 29 	call	0x5326	; 0x5326 <send_oled_data>
	send_oled_data(63 - c_bar4);  //Set the finishing column coordinates
    6554:	0a e0       	ldi	r16, 0x0A	; 10
    6556:	11 e0       	ldi	r17, 0x01	; 1
    6558:	f8 01       	movw	r30, r16
    655a:	80 81       	ld	r24, Z
    655c:	fc 2f       	mov	r31, r28
    655e:	f8 1b       	sub	r31, r24
    6560:	8f 2f       	mov	r24, r31
    6562:	0e 94 93 29 	call	0x5326	; 0x5326 <send_oled_data>
	send_oled_data(0);   //Set the outline color C, B and A
    6566:	80 e0       	ldi	r24, 0x00	; 0
    6568:	0e 94 93 29 	call	0x5326	; 0x5326 <send_oled_data>
	send_oled_data(0);
    656c:	80 e0       	ldi	r24, 0x00	; 0
    656e:	0e 94 93 29 	call	0x5326	; 0x5326 <send_oled_data>
	send_oled_data(0);
    6572:	80 e0       	ldi	r24, 0x00	; 0
    6574:	0e 94 93 29 	call	0x5326	; 0x5326 <send_oled_data>
	send_oled_data(0);   //Set the filled color C, B and A
    6578:	80 e0       	ldi	r24, 0x00	; 0
    657a:	0e 94 93 29 	call	0x5326	; 0x5326 <send_oled_data>
	send_oled_data(0);
    657e:	80 e0       	ldi	r24, 0x00	; 0
    6580:	0e 94 93 29 	call	0x5326	; 0x5326 <send_oled_data>
	send_oled_data(0);
    6584:	80 e0       	ldi	r24, 0x00	; 0
    6586:	0e 94 93 29 	call	0x5326	; 0x5326 <send_oled_data>
    658a:	8f e9       	ldi	r24, 0x9F	; 159
    658c:	9f e0       	ldi	r25, 0x0F	; 15
    658e:	01 97       	sbiw	r24, 0x01	; 1
    6590:	f1 f7       	brne	.-4      	; 0x658e <display_thin_red_bars+0x272>
    6592:	00 c0       	rjmp	.+0      	; 0x6594 <display_thin_red_bars+0x278>
    6594:	00 00       	nop
	_delay_ms(2);
	
	send_oled_data(0x22); // Enter the "draw rectangle mode" by execute the command 22h
    6596:	82 e2       	ldi	r24, 0x22	; 34
    6598:	0e 94 93 29 	call	0x5326	; 0x5326 <send_oled_data>
	send_oled_data(bar4_start_row+3);   //Set the starting row coordinates
    659c:	8d e2       	ldi	r24, 0x2D	; 45
    659e:	0e 94 93 29 	call	0x5326	; 0x5326 <send_oled_data>
	send_oled_data(63 - c_bar4);   //Set the starting column coordinates,
    65a2:	f8 01       	movw	r30, r16
    65a4:	80 81       	ld	r24, Z
    65a6:	fc 2f       	mov	r31, r28
    65a8:	f8 1b       	sub	r31, r24
    65aa:	8f 2f       	mov	r24, r31
    65ac:	0e 94 93 29 	call	0x5326	; 0x5326 <send_oled_data>
	send_oled_data(bar4_end_row-3);  //Set the finishing row coordinates
    65b0:	81 e3       	ldi	r24, 0x31	; 49
    65b2:	0e 94 93 29 	call	0x5326	; 0x5326 <send_oled_data>
	send_oled_data(63);  //Set the finishing column coordinates
    65b6:	8f e3       	ldi	r24, 0x3F	; 63
    65b8:	0e 94 93 29 	call	0x5326	; 0x5326 <send_oled_data>
	send_oled_data(0xff);   //Set the outline color C, B and A
    65bc:	8f ef       	ldi	r24, 0xFF	; 255
    65be:	0e 94 93 29 	call	0x5326	; 0x5326 <send_oled_data>
	send_oled_data(0);
    65c2:	80 e0       	ldi	r24, 0x00	; 0
    65c4:	0e 94 93 29 	call	0x5326	; 0x5326 <send_oled_data>
	send_oled_data(0);
    65c8:	80 e0       	ldi	r24, 0x00	; 0
    65ca:	0e 94 93 29 	call	0x5326	; 0x5326 <send_oled_data>
	send_oled_data(0xff);   //Set the filled color C, B and A
    65ce:	8f ef       	ldi	r24, 0xFF	; 255
    65d0:	0e 94 93 29 	call	0x5326	; 0x5326 <send_oled_data>
	send_oled_data(0);
    65d4:	80 e0       	ldi	r24, 0x00	; 0
    65d6:	0e 94 93 29 	call	0x5326	; 0x5326 <send_oled_data>
	send_oled_data(0);
    65da:	80 e0       	ldi	r24, 0x00	; 0
    65dc:	0e 94 93 29 	call	0x5326	; 0x5326 <send_oled_data>
    65e0:	8f e9       	ldi	r24, 0x9F	; 159
    65e2:	9f e0       	ldi	r25, 0x0F	; 15
    65e4:	01 97       	sbiw	r24, 0x01	; 1
    65e6:	f1 f7       	brne	.-4      	; 0x65e4 <display_thin_red_bars+0x2c8>
    65e8:	00 c0       	rjmp	.+0      	; 0x65ea <display_thin_red_bars+0x2ce>
    65ea:	00 00       	nop
	_delay_ms(2);
	//==========================
	
	util_BitClear(PORTB,OLED_DC);  // SET OLED TO RECEIVE COMMAND
    65ec:	28 98       	cbi	0x05, 0	; 5
	send_oled_data(0x22); // Enter the "draw rectangle mode" by execute the command 22h
    65ee:	82 e2       	ldi	r24, 0x22	; 34
    65f0:	0e 94 93 29 	call	0x5326	; 0x5326 <send_oled_data>
	send_oled_data(bar5_start_row+3);   //Set the starting row coordinates
    65f4:	8b e3       	ldi	r24, 0x3B	; 59
    65f6:	0e 94 93 29 	call	0x5326	; 0x5326 <send_oled_data>
	send_oled_data(0);   //Set the starting column coordinates,
    65fa:	80 e0       	ldi	r24, 0x00	; 0
    65fc:	0e 94 93 29 	call	0x5326	; 0x5326 <send_oled_data>
	send_oled_data(bar5_end_row-3);  //Set the finishing row coordinates
    6600:	8f e3       	ldi	r24, 0x3F	; 63
    6602:	0e 94 93 29 	call	0x5326	; 0x5326 <send_oled_data>
	send_oled_data(63 - c_bar5);  //Set the finishing column coordinates
    6606:	01 e1       	ldi	r16, 0x11	; 17
    6608:	11 e0       	ldi	r17, 0x01	; 1
    660a:	f8 01       	movw	r30, r16
    660c:	80 81       	ld	r24, Z
    660e:	fc 2f       	mov	r31, r28
    6610:	f8 1b       	sub	r31, r24
    6612:	8f 2f       	mov	r24, r31
    6614:	0e 94 93 29 	call	0x5326	; 0x5326 <send_oled_data>
	send_oled_data(0);   //Set the outline color C, B and A
    6618:	80 e0       	ldi	r24, 0x00	; 0
    661a:	0e 94 93 29 	call	0x5326	; 0x5326 <send_oled_data>
	send_oled_data(0);
    661e:	80 e0       	ldi	r24, 0x00	; 0
    6620:	0e 94 93 29 	call	0x5326	; 0x5326 <send_oled_data>
	send_oled_data(0);
    6624:	80 e0       	ldi	r24, 0x00	; 0
    6626:	0e 94 93 29 	call	0x5326	; 0x5326 <send_oled_data>
	send_oled_data(0);   //Set the filled color C, B and A
    662a:	80 e0       	ldi	r24, 0x00	; 0
    662c:	0e 94 93 29 	call	0x5326	; 0x5326 <send_oled_data>
	send_oled_data(0);
    6630:	80 e0       	ldi	r24, 0x00	; 0
    6632:	0e 94 93 29 	call	0x5326	; 0x5326 <send_oled_data>
	send_oled_data(0);
    6636:	80 e0       	ldi	r24, 0x00	; 0
    6638:	0e 94 93 29 	call	0x5326	; 0x5326 <send_oled_data>
    663c:	8f e9       	ldi	r24, 0x9F	; 159
    663e:	9f e0       	ldi	r25, 0x0F	; 15
    6640:	01 97       	sbiw	r24, 0x01	; 1
    6642:	f1 f7       	brne	.-4      	; 0x6640 <display_thin_red_bars+0x324>
    6644:	00 c0       	rjmp	.+0      	; 0x6646 <display_thin_red_bars+0x32a>
    6646:	00 00       	nop
	_delay_ms(2);
	
	send_oled_data(0x22); // Enter the "draw rectangle mode" by execute the command 22h
    6648:	82 e2       	ldi	r24, 0x22	; 34
    664a:	0e 94 93 29 	call	0x5326	; 0x5326 <send_oled_data>
	send_oled_data(bar5_start_row+3);   //Set the starting row coordinates
    664e:	8b e3       	ldi	r24, 0x3B	; 59
    6650:	0e 94 93 29 	call	0x5326	; 0x5326 <send_oled_data>
	send_oled_data(63 - c_bar5);   //Set the starting column coordinates,
    6654:	f8 01       	movw	r30, r16
    6656:	80 81       	ld	r24, Z
    6658:	fc 2f       	mov	r31, r28
    665a:	f8 1b       	sub	r31, r24
    665c:	8f 2f       	mov	r24, r31
    665e:	0e 94 93 29 	call	0x5326	; 0x5326 <send_oled_data>
	send_oled_data(bar5_end_row-3);  //Set the finishing row coordinates
    6662:	8f e3       	ldi	r24, 0x3F	; 63
    6664:	0e 94 93 29 	call	0x5326	; 0x5326 <send_oled_data>
	send_oled_data(63);  //Set the finishing column coordinates
    6668:	8f e3       	ldi	r24, 0x3F	; 63
    666a:	0e 94 93 29 	call	0x5326	; 0x5326 <send_oled_data>
	send_oled_data(0xff);   //Set the outline color C, B and A
    666e:	8f ef       	ldi	r24, 0xFF	; 255
    6670:	0e 94 93 29 	call	0x5326	; 0x5326 <send_oled_data>
	send_oled_data(0);
    6674:	80 e0       	ldi	r24, 0x00	; 0
    6676:	0e 94 93 29 	call	0x5326	; 0x5326 <send_oled_data>
	send_oled_data(0);
    667a:	80 e0       	ldi	r24, 0x00	; 0
    667c:	0e 94 93 29 	call	0x5326	; 0x5326 <send_oled_data>
	send_oled_data(0xff);   //Set the filled color C, B and A
    6680:	8f ef       	ldi	r24, 0xFF	; 255
    6682:	0e 94 93 29 	call	0x5326	; 0x5326 <send_oled_data>
	send_oled_data(0);
    6686:	80 e0       	ldi	r24, 0x00	; 0
    6688:	0e 94 93 29 	call	0x5326	; 0x5326 <send_oled_data>
	send_oled_data(0);
    668c:	80 e0       	ldi	r24, 0x00	; 0
    668e:	0e 94 93 29 	call	0x5326	; 0x5326 <send_oled_data>
    6692:	8f e9       	ldi	r24, 0x9F	; 159
    6694:	9f e0       	ldi	r25, 0x0F	; 15
    6696:	01 97       	sbiw	r24, 0x01	; 1
    6698:	f1 f7       	brne	.-4      	; 0x6696 <display_thin_red_bars+0x37a>
    669a:	00 c0       	rjmp	.+0      	; 0x669c <display_thin_red_bars+0x380>
    669c:	00 00       	nop
	_delay_ms(2);
	//==========================
	
	util_BitClear(PORTB,OLED_DC); // SET OLED TO RECEIVE COMMAND
    669e:	28 98       	cbi	0x05, 0	; 5
	send_oled_data(0x22); // Enter the "draw rectangle mode" by execute the command 22h
    66a0:	82 e2       	ldi	r24, 0x22	; 34
    66a2:	0e 94 93 29 	call	0x5326	; 0x5326 <send_oled_data>
	send_oled_data(bar6_start_row+3);   //Set the starting row coordinates
    66a6:	89 e4       	ldi	r24, 0x49	; 73
    66a8:	0e 94 93 29 	call	0x5326	; 0x5326 <send_oled_data>
	send_oled_data(0);   //Set the starting column coordinates,
    66ac:	80 e0       	ldi	r24, 0x00	; 0
    66ae:	0e 94 93 29 	call	0x5326	; 0x5326 <send_oled_data>
	send_oled_data(bar6_end_row-3);  //Set the finishing row coordinates
    66b2:	8d e4       	ldi	r24, 0x4D	; 77
    66b4:	0e 94 93 29 	call	0x5326	; 0x5326 <send_oled_data>
	send_oled_data(63 - c_bar6);  //Set the finishing column coordinates
    66b8:	06 e0       	ldi	r16, 0x06	; 6
    66ba:	11 e0       	ldi	r17, 0x01	; 1
    66bc:	f8 01       	movw	r30, r16
    66be:	80 81       	ld	r24, Z
    66c0:	fc 2f       	mov	r31, r28
    66c2:	f8 1b       	sub	r31, r24
    66c4:	8f 2f       	mov	r24, r31
    66c6:	0e 94 93 29 	call	0x5326	; 0x5326 <send_oled_data>
	send_oled_data(0);   //Set the outline color C, B and A
    66ca:	80 e0       	ldi	r24, 0x00	; 0
    66cc:	0e 94 93 29 	call	0x5326	; 0x5326 <send_oled_data>
	send_oled_data(0);
    66d0:	80 e0       	ldi	r24, 0x00	; 0
    66d2:	0e 94 93 29 	call	0x5326	; 0x5326 <send_oled_data>
	send_oled_data(0);
    66d6:	80 e0       	ldi	r24, 0x00	; 0
    66d8:	0e 94 93 29 	call	0x5326	; 0x5326 <send_oled_data>
	send_oled_data(0);   //Set the filled color C, B and A
    66dc:	80 e0       	ldi	r24, 0x00	; 0
    66de:	0e 94 93 29 	call	0x5326	; 0x5326 <send_oled_data>
	send_oled_data(0);
    66e2:	80 e0       	ldi	r24, 0x00	; 0
    66e4:	0e 94 93 29 	call	0x5326	; 0x5326 <send_oled_data>
	send_oled_data(0);
    66e8:	80 e0       	ldi	r24, 0x00	; 0
    66ea:	0e 94 93 29 	call	0x5326	; 0x5326 <send_oled_data>
    66ee:	8f e9       	ldi	r24, 0x9F	; 159
    66f0:	9f e0       	ldi	r25, 0x0F	; 15
    66f2:	01 97       	sbiw	r24, 0x01	; 1
    66f4:	f1 f7       	brne	.-4      	; 0x66f2 <display_thin_red_bars+0x3d6>
    66f6:	00 c0       	rjmp	.+0      	; 0x66f8 <display_thin_red_bars+0x3dc>
    66f8:	00 00       	nop
	_delay_ms(2);
	
	send_oled_data(0x22); // Enter the "draw rectangle mode" by execute the command 22h
    66fa:	82 e2       	ldi	r24, 0x22	; 34
    66fc:	0e 94 93 29 	call	0x5326	; 0x5326 <send_oled_data>
	send_oled_data(bar6_start_row+3);   //Set the starting row coordinates
    6700:	89 e4       	ldi	r24, 0x49	; 73
    6702:	0e 94 93 29 	call	0x5326	; 0x5326 <send_oled_data>
	send_oled_data(63 - c_bar6);   //Set the starting column coordinates,
    6706:	f8 01       	movw	r30, r16
    6708:	80 81       	ld	r24, Z
    670a:	fc 2f       	mov	r31, r28
    670c:	f8 1b       	sub	r31, r24
    670e:	8f 2f       	mov	r24, r31
    6710:	0e 94 93 29 	call	0x5326	; 0x5326 <send_oled_data>
	send_oled_data(bar6_end_row-3);  //Set the finishing row coordinates
    6714:	8d e4       	ldi	r24, 0x4D	; 77
    6716:	0e 94 93 29 	call	0x5326	; 0x5326 <send_oled_data>
	send_oled_data(63);  //Set the finishing column coordinates
    671a:	8f e3       	ldi	r24, 0x3F	; 63
    671c:	0e 94 93 29 	call	0x5326	; 0x5326 <send_oled_data>
	send_oled_data(0xff);   //Set the outline color C, B and A
    6720:	8f ef       	ldi	r24, 0xFF	; 255
    6722:	0e 94 93 29 	call	0x5326	; 0x5326 <send_oled_data>
	send_oled_data(0);
    6726:	80 e0       	ldi	r24, 0x00	; 0
    6728:	0e 94 93 29 	call	0x5326	; 0x5326 <send_oled_data>
	send_oled_data(0);
    672c:	80 e0       	ldi	r24, 0x00	; 0
    672e:	0e 94 93 29 	call	0x5326	; 0x5326 <send_oled_data>
	send_oled_data(0xff);   //Set the filled color C, B and A
    6732:	8f ef       	ldi	r24, 0xFF	; 255
    6734:	0e 94 93 29 	call	0x5326	; 0x5326 <send_oled_data>
	send_oled_data(0);
    6738:	80 e0       	ldi	r24, 0x00	; 0
    673a:	0e 94 93 29 	call	0x5326	; 0x5326 <send_oled_data>
	send_oled_data(0);
    673e:	80 e0       	ldi	r24, 0x00	; 0
    6740:	0e 94 93 29 	call	0x5326	; 0x5326 <send_oled_data>
    6744:	8f e9       	ldi	r24, 0x9F	; 159
    6746:	9f e0       	ldi	r25, 0x0F	; 15
    6748:	01 97       	sbiw	r24, 0x01	; 1
    674a:	f1 f7       	brne	.-4      	; 0x6748 <display_thin_red_bars+0x42c>
    674c:	00 c0       	rjmp	.+0      	; 0x674e <display_thin_red_bars+0x432>
    674e:	00 00       	nop
	_delay_ms(2);
	//==========================
	
	util_BitClear(PORTB,OLED_DC); // SET OLED TO RECEIVE COMMAND
    6750:	28 98       	cbi	0x05, 0	; 5
	send_oled_data(0x22); // Enter the "draw rectangle mode" by execute the command 22h
    6752:	82 e2       	ldi	r24, 0x22	; 34
    6754:	0e 94 93 29 	call	0x5326	; 0x5326 <send_oled_data>
	send_oled_data(bar7_start_row+3);   //Set the starting row coordinates
    6758:	87 e5       	ldi	r24, 0x57	; 87
    675a:	0e 94 93 29 	call	0x5326	; 0x5326 <send_oled_data>
	send_oled_data(0);   //Set the starting column coordinates,
    675e:	80 e0       	ldi	r24, 0x00	; 0
    6760:	0e 94 93 29 	call	0x5326	; 0x5326 <send_oled_data>
	send_oled_data(bar7_end_row-3);  //Set the finishing row coordinates
    6764:	8b e5       	ldi	r24, 0x5B	; 91
    6766:	0e 94 93 29 	call	0x5326	; 0x5326 <send_oled_data>
	send_oled_data(63 - c_bar7);  //Set the finishing column coordinates
    676a:	05 e1       	ldi	r16, 0x15	; 21
    676c:	11 e0       	ldi	r17, 0x01	; 1
    676e:	f8 01       	movw	r30, r16
    6770:	80 81       	ld	r24, Z
    6772:	fc 2f       	mov	r31, r28
    6774:	f8 1b       	sub	r31, r24
    6776:	8f 2f       	mov	r24, r31
    6778:	0e 94 93 29 	call	0x5326	; 0x5326 <send_oled_data>
	send_oled_data(0);   //Set the outline color C, B and A
    677c:	80 e0       	ldi	r24, 0x00	; 0
    677e:	0e 94 93 29 	call	0x5326	; 0x5326 <send_oled_data>
	send_oled_data(0);
    6782:	80 e0       	ldi	r24, 0x00	; 0
    6784:	0e 94 93 29 	call	0x5326	; 0x5326 <send_oled_data>
	send_oled_data(0);
    6788:	80 e0       	ldi	r24, 0x00	; 0
    678a:	0e 94 93 29 	call	0x5326	; 0x5326 <send_oled_data>
	send_oled_data(0);   //Set the filled color C, B and A
    678e:	80 e0       	ldi	r24, 0x00	; 0
    6790:	0e 94 93 29 	call	0x5326	; 0x5326 <send_oled_data>
	send_oled_data(0);
    6794:	80 e0       	ldi	r24, 0x00	; 0
    6796:	0e 94 93 29 	call	0x5326	; 0x5326 <send_oled_data>
	send_oled_data(0);
    679a:	80 e0       	ldi	r24, 0x00	; 0
    679c:	0e 94 93 29 	call	0x5326	; 0x5326 <send_oled_data>
    67a0:	8f e9       	ldi	r24, 0x9F	; 159
    67a2:	9f e0       	ldi	r25, 0x0F	; 15
    67a4:	01 97       	sbiw	r24, 0x01	; 1
    67a6:	f1 f7       	brne	.-4      	; 0x67a4 <display_thin_red_bars+0x488>
    67a8:	00 c0       	rjmp	.+0      	; 0x67aa <display_thin_red_bars+0x48e>
    67aa:	00 00       	nop
	_delay_ms(2);
	
	send_oled_data(0x22); // Enter the "draw rectangle mode" by execute the command 22h
    67ac:	82 e2       	ldi	r24, 0x22	; 34
    67ae:	0e 94 93 29 	call	0x5326	; 0x5326 <send_oled_data>
	send_oled_data(bar7_start_row+3);   //Set the starting row coordinates
    67b2:	87 e5       	ldi	r24, 0x57	; 87
    67b4:	0e 94 93 29 	call	0x5326	; 0x5326 <send_oled_data>
	send_oled_data(63 - c_bar7);   //Set the starting column coordinates,
    67b8:	f8 01       	movw	r30, r16
    67ba:	80 81       	ld	r24, Z
    67bc:	c8 1b       	sub	r28, r24
    67be:	8c 2f       	mov	r24, r28
    67c0:	0e 94 93 29 	call	0x5326	; 0x5326 <send_oled_data>
	send_oled_data(bar7_end_row-3);  //Set the finishing row coordinates
    67c4:	8b e5       	ldi	r24, 0x5B	; 91
    67c6:	0e 94 93 29 	call	0x5326	; 0x5326 <send_oled_data>
	send_oled_data(63);  //Set the finishing column coordinates
    67ca:	8f e3       	ldi	r24, 0x3F	; 63
    67cc:	0e 94 93 29 	call	0x5326	; 0x5326 <send_oled_data>
	send_oled_data(0xff);   //Set the outline color C, B and A
    67d0:	8f ef       	ldi	r24, 0xFF	; 255
    67d2:	0e 94 93 29 	call	0x5326	; 0x5326 <send_oled_data>
	send_oled_data(0);
    67d6:	80 e0       	ldi	r24, 0x00	; 0
    67d8:	0e 94 93 29 	call	0x5326	; 0x5326 <send_oled_data>
	send_oled_data(0);
    67dc:	80 e0       	ldi	r24, 0x00	; 0
    67de:	0e 94 93 29 	call	0x5326	; 0x5326 <send_oled_data>
	send_oled_data(0xff);   //Set the filled color C, B and A
    67e2:	8f ef       	ldi	r24, 0xFF	; 255
    67e4:	0e 94 93 29 	call	0x5326	; 0x5326 <send_oled_data>
	send_oled_data(0);
    67e8:	80 e0       	ldi	r24, 0x00	; 0
    67ea:	0e 94 93 29 	call	0x5326	; 0x5326 <send_oled_data>
	send_oled_data(0);
    67ee:	80 e0       	ldi	r24, 0x00	; 0
    67f0:	0e 94 93 29 	call	0x5326	; 0x5326 <send_oled_data>
    67f4:	8f e9       	ldi	r24, 0x9F	; 159
    67f6:	9f e0       	ldi	r25, 0x0F	; 15
    67f8:	01 97       	sbiw	r24, 0x01	; 1
    67fa:	f1 f7       	brne	.-4      	; 0x67f8 <display_thin_red_bars+0x4dc>
    67fc:	00 c0       	rjmp	.+0      	; 0x67fe <display_thin_red_bars+0x4e2>
    67fe:	00 00       	nop
	_delay_ms(2);
	//==========================
}
    6800:	cf 91       	pop	r28
    6802:	1f 91       	pop	r17
    6804:	0f 91       	pop	r16
    6806:	08 95       	ret

00006808 <main>:


int main(void)
{

	DDRB |=(1 << OLED_SCL)|(1 << OLED_SDA)| (1 << OLED_DC)|(1 << OLED_RES);
    6808:	84 b1       	in	r24, 0x04	; 4
    680a:	8b 62       	ori	r24, 0x2B	; 43
    680c:	84 b9       	out	0x04, r24	; 4
	DDRC |=(1 <<SA_RESET)|(1 << SA_STROBE); 
    680e:	87 b1       	in	r24, 0x07	; 7
    6810:	86 60       	ori	r24, 0x06	; 6
    6812:	87 b9       	out	0x07, r24	; 7
	util_BitSet(PORTC,MODE_SWITCH);
    6814:	43 9a       	sbi	0x08, 3	; 8
	util_BitSet(PCICR, PCIE1);                            //set PCIE0 flag
    6816:	e8 e6       	ldi	r30, 0x68	; 104
    6818:	f0 e0       	ldi	r31, 0x00	; 0
    681a:	80 81       	ld	r24, Z
    681c:	82 60       	ori	r24, 0x02	; 2
    681e:	80 83       	st	Z, r24
	util_BitSet(PCMSK1, PCINT11);                          //set PCINT0 flag
    6820:	ec e6       	ldi	r30, 0x6C	; 108
    6822:	f0 e0       	ldi	r31, 0x00	; 0
    6824:	80 81       	ld	r24, Z
    6826:	88 60       	ori	r24, 0x08	; 8
    6828:	80 83       	st	Z, r24

	ADCinit();
    682a:	0e 94 a9 2c 	call	0x5952	; 0x5952 <ADCinit>
	sei();
    682e:	78 94       	sei
	util_BitClear(PORTB,OLED_SCL);
    6830:	2d 98       	cbi	0x05, 5	; 5
	
	// OLED RESET
	util_BitClear(PORTB,OLED_RES);
    6832:	29 98       	cbi	0x05, 1	; 5
    6834:	8f ec       	ldi	r24, 0xCF	; 207
    6836:	97 e0       	ldi	r25, 0x07	; 7
    6838:	01 97       	sbiw	r24, 0x01	; 1
    683a:	f1 f7       	brne	.-4      	; 0x6838 <main+0x30>
    683c:	00 c0       	rjmp	.+0      	; 0x683e <main+0x36>
    683e:	00 00       	nop
	_delay_ms(1);
	util_BitSet(PORTB,OLED_RES);
    6840:	29 9a       	sbi	0x05, 1	; 5
    6842:	8f ec       	ldi	r24, 0xCF	; 207
    6844:	97 e0       	ldi	r25, 0x07	; 7
    6846:	01 97       	sbiw	r24, 0x01	; 1
    6848:	f1 f7       	brne	.-4      	; 0x6846 <main+0x3e>
    684a:	00 c0       	rjmp	.+0      	; 0x684c <main+0x44>
    684c:	00 00       	nop
	_delay_ms(1);

	// OLED MODULE INITIALIZATION
	// SET OLED TO RECEIVE COMMAND
	util_BitClear(PORTB,OLED_DC); 
    684e:	28 98       	cbi	0x05, 0	; 5
	send_oled_data(0xfd); // command lock
    6850:	8d ef       	ldi	r24, 0xFD	; 253
    6852:	0e 94 93 29 	call	0x5326	; 0x5326 <send_oled_data>
	send_oled_data(0x12);
    6856:	82 e1       	ldi	r24, 0x12	; 18
    6858:	0e 94 93 29 	call	0x5326	; 0x5326 <send_oled_data>
	send_oled_data(0xaF); // display on
    685c:	8f ea       	ldi	r24, 0xAF	; 175
    685e:	0e 94 93 29 	call	0x5326	; 0x5326 <send_oled_data>
	send_oled_data(0xa4); // Normal Display mode
    6862:	84 ea       	ldi	r24, 0xA4	; 164
    6864:	0e 94 93 29 	call	0x5326	; 0x5326 <send_oled_data>
	send_oled_data(0x15); //set column address
    6868:	85 e1       	ldi	r24, 0x15	; 21
    686a:	0e 94 93 29 	call	0x5326	; 0x5326 <send_oled_data>
	send_oled_data(0x00); //column address start 00
    686e:	80 e0       	ldi	r24, 0x00	; 0
    6870:	0e 94 93 29 	call	0x5326	; 0x5326 <send_oled_data>
	send_oled_data(0x5f); //column address end 95
    6874:	8f e5       	ldi	r24, 0x5F	; 95
    6876:	0e 94 93 29 	call	0x5326	; 0x5326 <send_oled_data>
	send_oled_data(0x75); //set row address
    687a:	85 e7       	ldi	r24, 0x75	; 117
    687c:	0e 94 93 29 	call	0x5326	; 0x5326 <send_oled_data>
	send_oled_data(0x00); //row address start 00
    6880:	80 e0       	ldi	r24, 0x00	; 0
    6882:	0e 94 93 29 	call	0x5326	; 0x5326 <send_oled_data>
	send_oled_data(0x3f); //row address end 63
    6886:	8f e3       	ldi	r24, 0x3F	; 63
    6888:	0e 94 93 29 	call	0x5326	; 0x5326 <send_oled_data>
	send_oled_data(0x87); //master current control
    688c:	87 e8       	ldi	r24, 0x87	; 135
    688e:	0e 94 93 29 	call	0x5326	; 0x5326 <send_oled_data>
	send_oled_data(0x06); //9/16(160uA)
    6892:	86 e0       	ldi	r24, 0x06	; 6
    6894:	0e 94 93 29 	call	0x5326	; 0x5326 <send_oled_data>
	send_oled_data(0x83); //Set Contrast for Color R
    6898:	83 e8       	ldi	r24, 0x83	; 131
    689a:	0e 94 93 29 	call	0x5326	; 0x5326 <send_oled_data>
	send_oled_data(0xc0);
    689e:	80 ec       	ldi	r24, 0xC0	; 192
    68a0:	0e 94 93 29 	call	0x5326	; 0x5326 <send_oled_data>
	send_oled_data(0x82); //Set Contrast for Color G
    68a4:	82 e8       	ldi	r24, 0x82	; 130
    68a6:	0e 94 93 29 	call	0x5326	; 0x5326 <send_oled_data>
	send_oled_data(0x65);
    68aa:	85 e6       	ldi	r24, 0x65	; 101
    68ac:	0e 94 93 29 	call	0x5326	; 0x5326 <send_oled_data>
	send_oled_data(0x81); //Set Contrast for Color B
    68b0:	81 e8       	ldi	r24, 0x81	; 129
    68b2:	0e 94 93 29 	call	0x5326	; 0x5326 <send_oled_data>
	send_oled_data(0x95);
    68b6:	85 e9       	ldi	r24, 0x95	; 149
    68b8:	0e 94 93 29 	call	0x5326	; 0x5326 <send_oled_data>
	send_oled_data(0x8a);
    68bc:	8a e8       	ldi	r24, 0x8A	; 138
    68be:	0e 94 93 29 	call	0x5326	; 0x5326 <send_oled_data>
	send_oled_data(0x61);
    68c2:	81 e6       	ldi	r24, 0x61	; 97
    68c4:	0e 94 93 29 	call	0x5326	; 0x5326 <send_oled_data>
	send_oled_data(0x8b);
    68c8:	8b e8       	ldi	r24, 0x8B	; 139
    68ca:	0e 94 93 29 	call	0x5326	; 0x5326 <send_oled_data>
	send_oled_data(0x62);
    68ce:	82 e6       	ldi	r24, 0x62	; 98
    68d0:	0e 94 93 29 	call	0x5326	; 0x5326 <send_oled_data>
	send_oled_data(0x8c);
    68d4:	8c e8       	ldi	r24, 0x8C	; 140
    68d6:	0e 94 93 29 	call	0x5326	; 0x5326 <send_oled_data>
	send_oled_data(0x63);
    68da:	83 e6       	ldi	r24, 0x63	; 99
    68dc:	0e 94 93 29 	call	0x5326	; 0x5326 <send_oled_data>
	send_oled_data(0xa0); //set re-map & data format
    68e0:	80 ea       	ldi	r24, 0xA0	; 160
    68e2:	0e 94 93 29 	call	0x5326	; 0x5326 <send_oled_data>
	send_oled_data(0x72); //Horizontal address increment
    68e6:	82 e7       	ldi	r24, 0x72	; 114
    68e8:	0e 94 93 29 	call	0x5326	; 0x5326 <send_oled_data>
	send_oled_data(0xa1); //set display start line
    68ec:	81 ea       	ldi	r24, 0xA1	; 161
    68ee:	0e 94 93 29 	call	0x5326	; 0x5326 <send_oled_data>
	send_oled_data(0x00); //start 00 line
    68f2:	80 e0       	ldi	r24, 0x00	; 0
    68f4:	0e 94 93 29 	call	0x5326	; 0x5326 <send_oled_data>
	send_oled_data(0xa2); //set display offset
    68f8:	82 ea       	ldi	r24, 0xA2	; 162
    68fa:	0e 94 93 29 	call	0x5326	; 0x5326 <send_oled_data>
	send_oled_data(0x00);
    68fe:	80 e0       	ldi	r24, 0x00	; 0
    6900:	0e 94 93 29 	call	0x5326	; 0x5326 <send_oled_data>
	send_oled_data(0xa8); //set multiplex ratio
    6904:	88 ea       	ldi	r24, 0xA8	; 168
    6906:	0e 94 93 29 	call	0x5326	; 0x5326 <send_oled_data>
	send_oled_data(0x3f); //64MUX
    690a:	8f e3       	ldi	r24, 0x3F	; 63
    690c:	0e 94 93 29 	call	0x5326	; 0x5326 <send_oled_data>
	send_oled_data(0xad);
    6910:	8d ea       	ldi	r24, 0xAD	; 173
    6912:	0e 94 93 29 	call	0x5326	; 0x5326 <send_oled_data>
	send_oled_data(0x8f);
    6916:	8f e8       	ldi	r24, 0x8F	; 143
    6918:	0e 94 93 29 	call	0x5326	; 0x5326 <send_oled_data>
	send_oled_data(0xb0); //set power save
    691c:	80 eb       	ldi	r24, 0xB0	; 176
    691e:	0e 94 93 29 	call	0x5326	; 0x5326 <send_oled_data>
	send_oled_data(0x1a); //
    6922:	8a e1       	ldi	r24, 0x1A	; 26
    6924:	0e 94 93 29 	call	0x5326	; 0x5326 <send_oled_data>
	send_oled_data(0xb1);
    6928:	81 eb       	ldi	r24, 0xB1	; 177
    692a:	0e 94 93 29 	call	0x5326	; 0x5326 <send_oled_data>
	send_oled_data(0xf1); // Phase 2 period Phase 1 period
    692e:	81 ef       	ldi	r24, 0xF1	; 241
    6930:	0e 94 93 29 	call	0x5326	; 0x5326 <send_oled_data>
	send_oled_data(0xb3); // Set Display Clock Divide Ratio/ Oscillator Frequency
    6934:	83 eb       	ldi	r24, 0xB3	; 179
    6936:	0e 94 93 29 	call	0x5326	; 0x5326 <send_oled_data>
	send_oled_data(0xd0); // 0.97MHZ
    693a:	80 ed       	ldi	r24, 0xD0	; 208
    693c:	0e 94 93 29 	call	0x5326	; 0x5326 <send_oled_data>
	send_oled_data(0xbb); // set pre-charge
    6940:	8b eb       	ldi	r24, 0xBB	; 187
    6942:	0e 94 93 29 	call	0x5326	; 0x5326 <send_oled_data>
	send_oled_data(0x3e); //
    6946:	8e e3       	ldi	r24, 0x3E	; 62
    6948:	0e 94 93 29 	call	0x5326	; 0x5326 <send_oled_data>
	send_oled_data(0xbe); //set Vcomh
    694c:	8e eb       	ldi	r24, 0xBE	; 190
    694e:	0e 94 93 29 	call	0x5326	; 0x5326 <send_oled_data>
	send_oled_data(0x3e); //0.83Vref
    6952:	8e e3       	ldi	r24, 0x3E	; 62
    6954:	0e 94 93 29 	call	0x5326	; 0x5326 <send_oled_data>
	send_oled_data(0x26); //Enable filling of color into rectangle in draw rectangle command
    6958:	86 e2       	ldi	r24, 0x26	; 38
    695a:	0e 94 93 29 	call	0x5326	; 0x5326 <send_oled_data>
	send_oled_data(0xA1);
    695e:	81 ea       	ldi	r24, 0xA1	; 161
    6960:	0e 94 93 29 	call	0x5326	; 0x5326 <send_oled_data>
	

	
	

	display_full_white();
    6964:	0e 94 43 2c 	call	0x5886	; 0x5886 <display_full_white>
    6968:	9f ef       	ldi	r25, 0xFF	; 255
    696a:	29 e6       	ldi	r18, 0x69	; 105
    696c:	88 e1       	ldi	r24, 0x18	; 24
    696e:	91 50       	subi	r25, 0x01	; 1
    6970:	20 40       	sbci	r18, 0x00	; 0
    6972:	80 40       	sbci	r24, 0x00	; 0
    6974:	e1 f7       	brne	.-8      	; 0x696e <main+0x166>
    6976:	00 c0       	rjmp	.+0      	; 0x6978 <main+0x170>
    6978:	00 00       	nop
	_delay_ms(1000);
	util_BitClear(PORTB,OLED_DC);  // SET OLED TO RECEIVE COMMAND
    697a:	28 98       	cbi	0x05, 0	; 5
	send_oled_data(0x15); //set column address
    697c:	85 e1       	ldi	r24, 0x15	; 21
    697e:	0e 94 93 29 	call	0x5326	; 0x5326 <send_oled_data>
	send_oled_data(00); //column address start 00
    6982:	80 e0       	ldi	r24, 0x00	; 0
    6984:	0e 94 93 29 	call	0x5326	; 0x5326 <send_oled_data>
	send_oled_data(0x5f); //column address end 95
    6988:	8f e5       	ldi	r24, 0x5F	; 95
    698a:	0e 94 93 29 	call	0x5326	; 0x5326 <send_oled_data>
	send_oled_data(0x75); //set row address
    698e:	85 e7       	ldi	r24, 0x75	; 117
    6990:	0e 94 93 29 	call	0x5326	; 0x5326 <send_oled_data>
	send_oled_data(8); //row address start 00
    6994:	88 e0       	ldi	r24, 0x08	; 8
    6996:	0e 94 93 29 	call	0x5326	; 0x5326 <send_oled_data>
	send_oled_data(0x3f); //row address end 63
    699a:	8f e3       	ldi	r24, 0x3F	; 63
    699c:	0e 94 93 29 	call	0x5326	; 0x5326 <send_oled_data>
	display_elektor_logo();
    69a0:	0e 94 7d 2c 	call	0x58fa	; 0x58fa <display_elektor_logo>
	
	util_BitClear(PORTB,OLED_DC); // SET OLED TO RECEIVE COMMAND
    69a4:	28 98       	cbi	0x05, 0	; 5
	send_oled_data(0x15); //set column address
    69a6:	85 e1       	ldi	r24, 0x15	; 21
    69a8:	0e 94 93 29 	call	0x5326	; 0x5326 <send_oled_data>
	send_oled_data(0x00); //column address start 00
    69ac:	80 e0       	ldi	r24, 0x00	; 0
    69ae:	0e 94 93 29 	call	0x5326	; 0x5326 <send_oled_data>
	send_oled_data(0x5f); //column address end 95
    69b2:	8f e5       	ldi	r24, 0x5F	; 95
    69b4:	0e 94 93 29 	call	0x5326	; 0x5326 <send_oled_data>
	send_oled_data(0x75); //set row address
    69b8:	85 e7       	ldi	r24, 0x75	; 117
    69ba:	0e 94 93 29 	call	0x5326	; 0x5326 <send_oled_data>
	send_oled_data(0x00); //row address start 00
    69be:	80 e0       	ldi	r24, 0x00	; 0
    69c0:	0e 94 93 29 	call	0x5326	; 0x5326 <send_oled_data>
	send_oled_data(0x3f); //row address end 63
    69c4:	8f e3       	ldi	r24, 0x3F	; 63
    69c6:	0e 94 93 29 	call	0x5326	; 0x5326 <send_oled_data>
    69ca:	9f ef       	ldi	r25, 0xFF	; 255
    69cc:	2d e3       	ldi	r18, 0x3D	; 61
    69ce:	89 e4       	ldi	r24, 0x49	; 73
    69d0:	91 50       	subi	r25, 0x01	; 1
    69d2:	20 40       	sbci	r18, 0x00	; 0
    69d4:	80 40       	sbci	r24, 0x00	; 0
    69d6:	e1 f7       	brne	.-8      	; 0x69d0 <main+0x1c8>
    69d8:	00 c0       	rjmp	.+0      	; 0x69da <main+0x1d2>
    69da:	00 00       	nop
	
	_delay_ms(3000);   // SHOW LOGO FOR 3 SEC
	display_blank();
    69dc:	0e 94 66 2c 	call	0x58cc	; 0x58cc <display_blank>
    69e0:	8f e1       	ldi	r24, 0x1F	; 31
    69e2:	9e e4       	ldi	r25, 0x4E	; 78
    69e4:	01 97       	sbiw	r24, 0x01	; 1
    69e6:	f1 f7       	brne	.-4      	; 0x69e4 <main+0x1dc>
    69e8:	00 c0       	rjmp	.+0      	; 0x69ea <main+0x1e2>
    69ea:	00 00       	nop
	_delay_ms(10);
	display_name();
    69ec:	0e 94 93 2c 	call	0x5926	; 0x5926 <display_name>
    69f0:	9f ef       	ldi	r25, 0xFF	; 255
    69f2:	2d e3       	ldi	r18, 0x3D	; 61
    69f4:	89 e4       	ldi	r24, 0x49	; 73
    69f6:	91 50       	subi	r25, 0x01	; 1
    69f8:	20 40       	sbci	r18, 0x00	; 0
    69fa:	80 40       	sbci	r24, 0x00	; 0
    69fc:	e1 f7       	brne	.-8      	; 0x69f6 <main+0x1ee>
    69fe:	00 c0       	rjmp	.+0      	; 0x6a00 <main+0x1f8>
    6a00:	00 00       	nop
	_delay_ms(3000);
	
	display_blank();
    6a02:	0e 94 66 2c 	call	0x58cc	; 0x58cc <display_blank>
    6a06:	8f e1       	ldi	r24, 0x1F	; 31
    6a08:	9e e4       	ldi	r25, 0x4E	; 78
    6a0a:	01 97       	sbiw	r24, 0x01	; 1
    6a0c:	f1 f7       	brne	.-4      	; 0x6a0a <main+0x202>
    6a0e:	00 c0       	rjmp	.+0      	; 0x6a10 <main+0x208>
    6a10:	00 00       	nop
	_delay_ms(10);

	while(1)
	{

		read_sa();  // READ SPECTRUM ANALYZER
    6a12:	0e 94 ce 2c 	call	0x599c	; 0x599c <read_sa>
		if(button_pressed == 1)
    6a16:	80 91 02 01 	lds	r24, 0x0102	; 0x800102 <__data_end>
    6a1a:	90 91 03 01 	lds	r25, 0x0103	; 0x800103 <__data_end+0x1>
    6a1e:	01 97       	sbiw	r24, 0x01	; 1
    6a20:	31 f4       	brne	.+12     	; 0x6a2e <main+0x226>
		{
			button_pressed = 0;
    6a22:	10 92 03 01 	sts	0x0103, r1	; 0x800103 <__data_end+0x1>
    6a26:	10 92 02 01 	sts	0x0102, r1	; 0x800102 <__data_end>
			display_blank();
    6a2a:	0e 94 66 2c 	call	0x58cc	; 0x58cc <display_blank>
		}

			switch(mode)
    6a2e:	80 91 00 01 	lds	r24, 0x0100	; 0x800100 <__data_start>
    6a32:	90 91 01 01 	lds	r25, 0x0101	; 0x800101 <__data_start+0x1>
    6a36:	82 30       	cpi	r24, 0x02	; 2
    6a38:	91 05       	cpc	r25, r1
    6a3a:	69 f0       	breq	.+26     	; 0x6a56 <main+0x24e>
    6a3c:	1c f4       	brge	.+6      	; 0x6a44 <main+0x23c>
    6a3e:	01 97       	sbiw	r24, 0x01	; 1
    6a40:	39 f0       	breq	.+14     	; 0x6a50 <main+0x248>
    6a42:	11 c0       	rjmp	.+34     	; 0x6a66 <main+0x25e>
    6a44:	83 30       	cpi	r24, 0x03	; 3
    6a46:	91 05       	cpc	r25, r1
    6a48:	49 f0       	breq	.+18     	; 0x6a5c <main+0x254>
    6a4a:	04 97       	sbiw	r24, 0x04	; 4
    6a4c:	51 f0       	breq	.+20     	; 0x6a62 <main+0x25a>
    6a4e:	0b c0       	rjmp	.+22     	; 0x6a66 <main+0x25e>
			{
				case 1:display_white_bars();
    6a50:	0e 94 cc 29 	call	0x5398	; 0x5398 <display_white_bars>
				break;
    6a54:	08 c0       	rjmp	.+16     	; 0x6a66 <main+0x25e>

				case 2:display_green_yellow_red_bars();
    6a56:	0e 94 ed 2e 	call	0x5dda	; 0x5dda <display_green_yellow_red_bars>
				break;
    6a5a:	05 c0       	rjmp	.+10     	; 0x6a66 <main+0x25e>

				case 3:display_thin_blue_bars();
    6a5c:	0e 94 18 2f 	call	0x5e30	; 0x5e30 <display_thin_blue_bars>
				break;
    6a60:	02 c0       	rjmp	.+4      	; 0x6a66 <main+0x25e>

				case 4:display_thin_red_bars (); 
    6a62:	0e 94 8e 31 	call	0x631c	; 0x631c <display_thin_red_bars>
    6a66:	8f e5       	ldi	r24, 0x5F	; 95
    6a68:	9a ee       	ldi	r25, 0xEA	; 234
    6a6a:	01 97       	sbiw	r24, 0x01	; 1
    6a6c:	f1 f7       	brne	.-4      	; 0x6a6a <main+0x262>
    6a6e:	00 c0       	rjmp	.+0      	; 0x6a70 <main+0x268>
    6a70:	00 00       	nop
    6a72:	cf cf       	rjmp	.-98     	; 0x6a12 <main+0x20a>

00006a74 <__vector_4>:
	//==========================
}
//

ISR (PCINT1_vect)
{ 
    6a74:	1f 92       	push	r1
    6a76:	0f 92       	push	r0
    6a78:	0f b6       	in	r0, 0x3f	; 63
    6a7a:	0f 92       	push	r0
    6a7c:	11 24       	eor	r1, r1
    6a7e:	2f 93       	push	r18
    6a80:	8f 93       	push	r24
    6a82:	9f 93       	push	r25
	if(util_IsBitCleared(PINC,MODE_SWITCH))                       //button press interrupt detection 
    6a84:	33 99       	sbic	0x06, 3	; 6
    6a86:	19 c0       	rjmp	.+50     	; 0x6aba <__vector_4+0x46>
    {
        button_pressed = 1;                             
    6a88:	81 e0       	ldi	r24, 0x01	; 1
    6a8a:	90 e0       	ldi	r25, 0x00	; 0
    6a8c:	90 93 03 01 	sts	0x0103, r25	; 0x800103 <__data_end+0x1>
    6a90:	80 93 02 01 	sts	0x0102, r24	; 0x800102 <__data_end>
        if(mode < 4)                        //selection of division factor on each button press 
    6a94:	80 91 00 01 	lds	r24, 0x0100	; 0x800100 <__data_start>
    6a98:	90 91 01 01 	lds	r25, 0x0101	; 0x800101 <__data_start+0x1>
    6a9c:	84 30       	cpi	r24, 0x04	; 4
    6a9e:	91 05       	cpc	r25, r1
    6aa0:	34 f4       	brge	.+12     	; 0x6aae <__vector_4+0x3a>
        {
            mode++;
    6aa2:	01 96       	adiw	r24, 0x01	; 1
    6aa4:	90 93 01 01 	sts	0x0101, r25	; 0x800101 <__data_start+0x1>
    6aa8:	80 93 00 01 	sts	0x0100, r24	; 0x800100 <__data_start>
    6aac:	06 c0       	rjmp	.+12     	; 0x6aba <__vector_4+0x46>
        }
        else
        {
            mode=1;                        //reset division factor to zero
    6aae:	81 e0       	ldi	r24, 0x01	; 1
    6ab0:	90 e0       	ldi	r25, 0x00	; 0
    6ab2:	90 93 01 01 	sts	0x0101, r25	; 0x800101 <__data_start+0x1>
    6ab6:	80 93 00 01 	sts	0x0100, r24	; 0x800100 <__data_start>
    6aba:	2f ef       	ldi	r18, 0xFF	; 255
    6abc:	82 e5       	ldi	r24, 0x52	; 82
    6abe:	97 e0       	ldi	r25, 0x07	; 7
    6ac0:	21 50       	subi	r18, 0x01	; 1
    6ac2:	80 40       	sbci	r24, 0x00	; 0
    6ac4:	90 40       	sbci	r25, 0x00	; 0
    6ac6:	e1 f7       	brne	.-8      	; 0x6ac0 <__vector_4+0x4c>
    6ac8:	00 c0       	rjmp	.+0      	; 0x6aca <__vector_4+0x56>
    6aca:	00 00       	nop
        }
    }  
	
	_delay_ms(300);

}
    6acc:	9f 91       	pop	r25
    6ace:	8f 91       	pop	r24
    6ad0:	2f 91       	pop	r18
    6ad2:	0f 90       	pop	r0
    6ad4:	0f be       	out	0x3f, r0	; 63
    6ad6:	0f 90       	pop	r0
    6ad8:	1f 90       	pop	r1
    6ada:	18 95       	reti

00006adc <__divmodhi4>:
    6adc:	97 fb       	bst	r25, 7
    6ade:	07 2e       	mov	r0, r23
    6ae0:	16 f4       	brtc	.+4      	; 0x6ae6 <__divmodhi4+0xa>
    6ae2:	00 94       	com	r0
    6ae4:	07 d0       	rcall	.+14     	; 0x6af4 <__divmodhi4_neg1>
    6ae6:	77 fd       	sbrc	r23, 7
    6ae8:	09 d0       	rcall	.+18     	; 0x6afc <__divmodhi4_neg2>
    6aea:	0e 94 82 35 	call	0x6b04	; 0x6b04 <__udivmodhi4>
    6aee:	07 fc       	sbrc	r0, 7
    6af0:	05 d0       	rcall	.+10     	; 0x6afc <__divmodhi4_neg2>
    6af2:	3e f4       	brtc	.+14     	; 0x6b02 <__divmodhi4_exit>

00006af4 <__divmodhi4_neg1>:
    6af4:	90 95       	com	r25
    6af6:	81 95       	neg	r24
    6af8:	9f 4f       	sbci	r25, 0xFF	; 255
    6afa:	08 95       	ret

00006afc <__divmodhi4_neg2>:
    6afc:	70 95       	com	r23
    6afe:	61 95       	neg	r22
    6b00:	7f 4f       	sbci	r23, 0xFF	; 255

00006b02 <__divmodhi4_exit>:
    6b02:	08 95       	ret

00006b04 <__udivmodhi4>:
    6b04:	aa 1b       	sub	r26, r26
    6b06:	bb 1b       	sub	r27, r27
    6b08:	51 e1       	ldi	r21, 0x11	; 17
    6b0a:	07 c0       	rjmp	.+14     	; 0x6b1a <__udivmodhi4_ep>

00006b0c <__udivmodhi4_loop>:
    6b0c:	aa 1f       	adc	r26, r26
    6b0e:	bb 1f       	adc	r27, r27
    6b10:	a6 17       	cp	r26, r22
    6b12:	b7 07       	cpc	r27, r23
    6b14:	10 f0       	brcs	.+4      	; 0x6b1a <__udivmodhi4_ep>
    6b16:	a6 1b       	sub	r26, r22
    6b18:	b7 0b       	sbc	r27, r23

00006b1a <__udivmodhi4_ep>:
    6b1a:	88 1f       	adc	r24, r24
    6b1c:	99 1f       	adc	r25, r25
    6b1e:	5a 95       	dec	r21
    6b20:	a9 f7       	brne	.-22     	; 0x6b0c <__udivmodhi4_loop>
    6b22:	80 95       	com	r24
    6b24:	90 95       	com	r25
    6b26:	bc 01       	movw	r22, r24
    6b28:	cd 01       	movw	r24, r26
    6b2a:	08 95       	ret

00006b2c <_exit>:
    6b2c:	f8 94       	cli

00006b2e <__stop_program>:
    6b2e:	ff cf       	rjmp	.-2      	; 0x6b2e <__stop_program>
